(dp1
S'output'
p2
S"<class 'urllib2.URLError'> <urlopen error [Errno 11001] getaddrinfo failed>"
p3
sS'layer'
p4
S'C:\\Users\\Kevin\\Desktop\\web2py\\applications\\P2P\\controllers/default.py'
p5
sS'code'
p6
S'# -*- coding: utf-8 -*-\n# this file is released under public domain and you can use without limitations\n\n#########################################################################\n## This is a sample controller\n## - index is the default action of any application\n## - user is required for authentication and authorization\n## - download is for downloading files uploaded in the db (does streaming)\n#########################################################################\n\n\ndef index():\n    return locals()\n\n\ndef user():\n    return dict(form=auth())\n\ndef browse():\n    rows = db(db.poem).select()\n    return locals()\n\ndef search():\n    rows = db(db.poem).select()\n    searchKey = ""\n    searchType = \'Poems\'\n    form = FORM(\'Search: \',\n              INPUT(_name=\'search\'),\n              \'    Search By:  \',\n              INPUT(_type =\'radio\', _name = \'searchType\', _value = \'Poems\', _checked="checked"), \'  Poems \',\n              INPUT(_type =\'radio\', _name = \'searchType\', _value = \'Authors\'),\'  Authors  \',\n              INPUT(_type=\'submit\'))\n    if form.accepts(request,session):\n        searchKey = form.vars.search\n        searchType = form.vars.searchType\n\n    return locals()\n\ndef test():\n    import urllib\n    import urllib2\n    from gluon.contrib import simplejson\n    url = \'http://rhymebrain.com/talk\'\n    data = {}\n    data[\'function\'] = \'getRhymes\'\n    data[\'word\'] = \'fire\'\n    url_values = urllib.urlencode(data)\n    full_url = url + \'?\' + url_values\n    data = urllib2.urlopen(full_url)\n    result = data.read()\n    parsed_json = simplejson.loads(result)\n    return locals()\n\ndef poem():\n    # Redirect to poem browser if no argument for poem id\n    if not request.args(0): redirect(URL(\'browse\'))\n\n    # Load poem using the URL argument as poem id\n    poem = db.poem(request.args(0,cast=int))\n    rows = db(db.newline.poem_id == poem.id).select(orderby=db.newline.line_number)\n    contributors = db(db.newline.poem_id == poem.id).select(db.newline.author, groupby=db.newline.author)\n\n    return locals()\n\n@auth.requires_login()\ndef create():\n    form = SQLFORM(db.poem, fields=[\'title\', \'body\', \'permission\'], labels = {\'body\':\'First two lines\'}).process()\n    if form.accepted:\n        # Create a new insert into permission table if poem was created Private (give owner permission)\n        if form.vars.permission == \'Private\':\n            db.permission.insert(user_id = auth.user, poem_id = form.vars.id)\n        redirect(URL(\'browse\'))\n    return locals()\n\n@auth.requires_login()\ndef edit():\n    # Redirect to poem browser if no argument for poem id\n    if not request.args(0): redirect(URL(\'browse\'))\n\n    # Load poem using the URL argument as poem id\n    poem_id = request.args(0,cast=int)\n    poem = db.poem(poem_id)\n\n    # Redirect if current user is not owner of poem\n    if poem.author != auth.user.id:\n        session.flash = \'You are not the owner of this poem and cannot edit it\'\n        redirect(URL(\'poem\',args=poem.id))\n\n    # Create SQLFORM\n    form = SQLFORM(db.poem, record=poem, fields=[\'title\',\'body\']).process()\n    lines = db(db.newline.poem_id == poem_id).select(orderby=db.newline.line_number)\n    lines_form = []\n    for line in lines:\n        lines_form.append(SQLFORM(db.newline, record=line.id, showid=False, deletable=True, submit_button = \'Delete\', fields=[\'line\']).process())\n    #\n    if form.accepted: redirect(URL(\'browse\'))\n    forms = FORM(\'Username: \',\n              INPUT(_name=\'username\'),\n              INPUT(_type=\'submit\'))\n    if forms.accepts(request,session):\n        added = False\n        for users in db(db.auth_user).select():\n            if(users.username == forms.vars.username):\n                for permission in db(db.permission).select():\n                    if(permission.user_id == users.id and permission.poem_id == poem.id):\n                        response.flash = \'Already Added\'\n                    else:\n                        added = True\n                if(added == True):\n                    db.permission.insert(user_id = users.id , poem_id = poem.id)\n                    response.flash = \'Added\'\n    return locals()\n\n@auth.requires_login()\ndef add():\n    import urllib\n    import urllib2\n    from gluon.contrib import simplejson\n    # Redirect to poem browser if no argument for poem id\n    if not request.args(0): redirect(URL(\'browse\'))\n\n    # Load poem using the URL argument as poem id\n    poem = db.poem(request.args(0,cast=int))\n    rows = db(db.newline.poem_id == poem.id).select(orderby=db.newline.line_number)\n\n    # Check if poem is private and if current user has proper permissions, redirect if no permission\n    if poem.permission == \'Private\':\n        if not db(db.permission.poem_id == poem.id, db.permission.user_id == auth.user.id).select():\n            session.flash = \'You do not have permission to add to this poem\'\n            redirect(URL(\'poem\', args=poem.id))\n\n    # Grab last word in the second to last line to rhyme by default (for ABAB rhyme scheme)\n    rhyme_word = \'\'\n    if poem.line_count == 2:\n        rhyme_word = poem.body.splitlines()[0].split(\' \')[-1]\n    elif poem.line_count == 3:\n        rhyme_word = poem.body.splitlines()[1].split(\' \')[-1]\n    else:\n        rhyme_line = db((db.newline.poem_id == poem.id)&(db.newline.line_number == poem.line_count-1)).select().first()\n        rhyme_word = rhyme_line.line.split(\' \')[-1]\n\n    #Get use the rhymebrain API\n    url = \'http://rhymebrain.com/talk\'\n    data = {}\n    data[\'function\'] = \'getRhymes\'\n    data[\'word\'] = rhyme_word\n    url_values = urllib.urlencode(data)\n    full_url = url + \'?\' + url_values\n    data = urllib2.urlopen(full_url)\n    result = data.read()\n    parsed_json = simplejson.loads(result)\n\n    # Create SQLFORM for the user to add a single line as a String\n    form = SQLFORM(db.newline, fields=[\'line\'], onvalidation=add_validation)\n    form.vars.poem_id = poem.id\n    form.vars.line_number = poem.line_count + 1\n\n    form.process()\n    if form.accepted:\n        poem.update_record(line_count=poem.line_count + 1)\n        redirect(URL(\'poem\', args=poem.id))\n    return locals()\n\ndef add_validation(form):\n    current_line_count = db(db.poem.id == form.vars.poem_id).select().first().line_count\n    if current_line_count != form.vars.line_number + 1:\n        form.errors = True\n        redirect(URL(\'add\', args=poem.id))\n\n@auth.requires_login()\ndef profile():\n    user = auth.user\n    poem = db.poem\n    poems_owned = db(db.poem.author == user.id).select()\n    poems_contributed = db(db.newline.author == user.id, db.poem.id == db.newline.poem_id).select(groupby=db.poem.id)\n    return locals()\n\nresponse._vars=response._caller(add)\n'
p7
sS'snapshot'
p8
(dp9
S'exception'
p10
(dp11
S'__module__'
p12
S"'urllib2'"
p13
sS'__getslice__'
p14
S"<method-wrapper '__getslice__' of URLError object>"
p15
sS'__str__'
p16
S"<bound method URLError.__str__ of URLError(gaierror(11001, 'getaddrinfo failed'),)>"
p17
sS'__reduce__'
p18
S'<built-in method __reduce__ of URLError object>'
p19
sS'__dict__'
p20
S"{'reason': gaierror(11001, 'getaddrinfo failed')}"
p21
sS'__sizeof__'
p22
S'<built-in method __sizeof__ of URLError object>'
p23
sS'__weakref__'
p24
S'None'
p25
sS'__init__'
p26
S"<bound method URLError.__init__ of URLError(gaierror(11001, 'getaddrinfo failed'),)>"
p27
sS'__setattr__'
p28
S"<method-wrapper '__setattr__' of URLError object>"
p29
sS'__reduce_ex__'
p30
S'<built-in method __reduce_ex__ of URLError object>'
p31
sS'__new__'
p32
S'<built-in method __new__ of type object>'
p33
sS'errno'
p34
S'None'
p35
sS'__format__'
p36
S'<built-in method __format__ of URLError object>'
p37
sS'__class__'
p38
S"<class 'urllib2.URLError'>"
p39
sS'filename'
p40
S'None'
p41
sS'__doc__'
p42
S'None'
p43
sS'__getitem__'
p44
S"<method-wrapper '__getitem__' of URLError object>"
p45
sS'__setstate__'
p46
S'<built-in method __setstate__ of URLError object>'
p47
sS'__getattribute__'
p48
S"<method-wrapper '__getattribute__' of URLError object>"
p49
sS'args'
p50
S"(gaierror(11001, 'getaddrinfo failed'),)"
p51
sS'reason'
p52
S"gaierror(11001, 'getaddrinfo failed')"
p53
sS'__subclasshook__'
p54
S'<built-in method __subclasshook__ of type object>'
p55
sS'__unicode__'
p56
S'<built-in method __unicode__ of URLError object>'
p57
sS'strerror'
p58
S'None'
p59
sS'__delattr__'
p60
S"<method-wrapper '__delattr__' of URLError object>"
p61
sS'__repr__'
p62
S"<method-wrapper '__repr__' of URLError object>"
p63
sS'__hash__'
p64
S"<method-wrapper '__hash__' of URLError object>"
p65
ssS'evalue'
p66
S'<urlopen error [Errno 11001] getaddrinfo failed>'
p67
sS'request'
p68
cgluon.html
XML_unpickle
p69
(S's\x8f^\x00\x00<div><table><tr><td style="font-weight:bold;vertical-align:top;">ajax</td><td style="vertical-align:top;">:</td><td><div>False</div></td></tr><tr><td style="font-weight:bold;vertical-align:top;">application</td><td style="vertical-align:top;">:</td><td><div>P2P</div></td></tr><tr><td style="font-weight:bold;vertical-align:top;">args</td><td style="vertical-align:top;">:</td><td><div><table><tr><td><div>1</div></td></tr></table></div></td></tr><tr><td style="font-weight:bold;vertical-align:top;">cid</td><td style="vertical-align:top;">:</td><td><div>None</div></td></tr><tr><td style="font-weight:bold;vertical-align:top;">client</td><td style="vertical-align:top;">:</td><td><div>127.0.0.1</div></td></tr><tr><td style="font-weight:bold;vertical-align:top;">controller</td><td style="vertical-align:top;">:</td><td><div>default</div></td></tr><tr><td style="font-weight:bold;vertical-align:top;">cookies</td><td style="vertical-align:top;">:</td><td><div><table><tr><td style="font-weight:bold;vertical-align:top;">session_id_admin</td><td style="vertical-align:top;">:</td><td><div>127.0.0.1-b3517d3b-44b2-4e6e-944c-99969815f632<table><tr><td style="font-weight:bold;vertical-align:top;">comment</td><td style="vertical-align:top;">:</td><td><div></div></td></tr><tr><td style="font-weight:bold;vertical-align:top;">domain</td><td style="vertical-align:top;">:</td><td><div></div></td></tr><tr><td style="font-weight:bold;vertical-align:top;">expires</td><td style="vertical-align:top;">:</td><td><div></div></td></tr><tr><td style="font-weight:bold;vertical-align:top;">httponly</td><td style="vertical-align:top;">:</td><td><div></div></td></tr><tr><td style="font-weight:bold;vertical-align:top;">max-age</td><td style="vertical-align:top;">:</td><td><div></div></td></tr><tr><td style="font-weight:bold;vertical-align:top;">path</td><td style="vertical-align:top;">:</td><td><div></div></td></tr><tr><td style="font-weight:bold;vertical-align:top;">secure</td><td style="vertical-align:top;">:</td><td><div></div></td></tr><tr><td style="font-weight:bold;vertical-align:top;">version</td><td style="vertical-align:top;">:</td><td><div></div></td></tr></table></div></td></tr><tr><td style="font-weight:bold;vertical-align:top;">session_id_p2p</td><td style="vertical-align:top;">:</td><td><div>127.0.0.1-20cd964d-4dd8-4c83-8f7a-27b0dcd5340f<table><tr><td style="font-weight:bold;vertical-align:top;">comment</td><td style="vertical-align:top;">:</td><td><div></div></td></tr><tr><td style="font-weight:bold;vertical-align:top;">domain</td><td style="vertical-align:top;">:</td><td><div></div></td></tr><tr><td style="font-weight:bold;vertical-align:top;">expires</td><td style="vertical-align:top;">:</td><td><div></div></td></tr><tr><td style="font-weight:bold;vertical-align:top;">httponly</td><td style="vertical-align:top;">:</td><td><div></div></td></tr><tr><td style="font-weight:bold;vertical-align:top;">max-age</td><td style="vertical-align:top;">:</td><td><div></div></td></tr><tr><td style="font-weight:bold;vertical-align:top;">path</td><td style="vertical-align:top;">:</td><td><div></div></td></tr><tr><td style="font-weight:bold;vertical-align:top;">secure</td><td style="vertical-align:top;">:</td><td><div></div></td></tr><tr><td style="font-weight:bold;vertical-align:top;">version</td><td style="vertical-align:top;">:</td><td><div></div></td></tr></table></div></td></tr><tr><td style="font-weight:bold;vertical-align:top;">session_id_welcome</td><td style="vertical-align:top;">:</td><td><div>127.0.0.1-fc345fd3-8667-446f-a100-e0786fb6f52d<table><tr><td style="font-weight:bold;vertical-align:top;">comment</td><td style="vertical-align:top;">:</td><td><div></div></td></tr><tr><td style="font-weight:bold;vertical-align:top;">domain</td><td style="vertical-align:top;">:</td><td><div></div></td></tr><tr><td style="font-weight:bold;vertical-align:top;">expires</td><td style="vertical-align:top;">:</td><td><div></div></td></tr><tr><td style="font-weight:bold;vertical-align:top;">httponly</td><td style="vertical-align:top;">:</td><td><div></div></td></tr><tr><td style="font-weight:bold;vertical-align:top;">max-age</td><td style="vertical-align:top;">:</td><td><div></div></td></tr><tr><td style="font-weight:bold;vertical-align:top;">path</td><td style="vertical-align:top;">:</td><td><div></div></td></tr><tr><td style="font-weight:bold;vertical-align:top;">secure</td><td style="vertical-align:top;">:</td><td><div></div></td></tr><tr><td style="font-weight:bold;vertical-align:top;">version</td><td style="vertical-align:top;">:</td><td><div></div></td></tr></table></div></td></tr></table></div></td></tr><tr><td style="font-weight:bold;vertical-align:top;">env</td><td style="vertical-align:top;">:</td><td><div><table><tr><td style="font-weight:bold;vertical-align:top;">HTTP_ACCEPT</td><td style="vertical-align:top;">:</td><td><div>text/html,application/xhtml+xml,application/xml;q=0.9,image/webp,*/*;q=0.8</div></td></tr><tr><td style="font-weight:bold;vertical-align:top;">HTTP_ACCEPT_ENCODING</td><td style="vertical-align:top;">:</td><td><div>gzip, deflate</div></td></tr><tr><td style="font-weight:bold;vertical-align:top;">HTTP_ACCEPT_LANGUAGE</td><td style="vertical-align:top;">:</td><td><div>en-US,en;q=0.8</div></td></tr><tr><td style="font-weight:bold;vertical-align:top;">HTTP_CONNECTION</td><td style="vertical-align:top;">:</td><td><div>keep-alive</div></td></tr><tr><td style="font-weight:bold;vertical-align:top;">HTTP_COOKIE</td><td style="vertical-align:top;">:</td><td><div>session_id_welcome=127.0.0.1-fc345fd3-8667-446f-a100-e0786fb6f52d; session_id_admin=127.0.0.1-b3517d3b-44b2-4e6e-944c-99969815f632; session_id_p2p=127.0.0.1-20cd964d-4dd8-4c83-8f7a-27b0dcd5340f</div></td></tr><tr><td style="font-weight:bold;vertical-align:top;">HTTP_HOST</td><td style="vertical-align:top;">:</td><td><div>127.0.0.1:8000</div></td></tr><tr><td style="font-weight:bold;vertical-align:top;">HTTP_REFERER</td><td style="vertical-align:top;">:</td><td><div>http://127.0.0.1:8000/P2P/default/poem/1</div></td></tr><tr><td style="font-weight:bold;vertical-align:top;">HTTP_UPGRADE_INSECURE_REQUESTS</td><td style="vertical-align:top;">:</td><td><div>1</div></td></tr><tr><td style="font-weight:bold;vertical-align:top;">HTTP_USER_AGENT</td><td style="vertical-align:top;">:</td><td><div>Mozilla/5.0 (Windows NT 10.0; WOW64) AppleWebKit/537.36 (KHTML, like Gecko) Chrome/48.0.2564.109 Safari/537.36</div></td></tr><tr><td style="font-weight:bold;vertical-align:top;">PATH_INFO</td><td style="vertical-align:top;">:</td><td><div>/P2P/default/add/1</div></td></tr><tr><td style="font-weight:bold;vertical-align:top;">QUERY_STRING</td><td style="vertical-align:top;">:</td><td><div></div></td></tr><tr><td style="font-weight:bold;vertical-align:top;">REMOTE_ADDR</td><td style="vertical-align:top;">:</td><td><div>127.0.0.1</div></td></tr><tr><td style="font-weight:bold;vertical-align:top;">REMOTE_PORT</td><td style="vertical-align:top;">:</td><td><div>51885</div></td></tr><tr><td style="font-weight:bold;vertical-align:top;">REQUEST_METHOD</td><td style="vertical-align:top;">:</td><td><div>GET</div></td></tr><tr><td style="font-weight:bold;vertical-align:top;">SCRIPT_NAME</td><td style="vertical-align:top;">:</td><td><div></div></td></tr><tr><td style="font-weight:bold;vertical-align:top;">SERVER_NAME</td><td style="vertical-align:top;">:</td><td><div>Kevin-VAIO</div></td></tr><tr><td style="font-weight:bold;vertical-align:top;">SERVER_PORT</td><td style="vertical-align:top;">:</td><td><div>8000</div></td></tr><tr><td style="font-weight:bold;vertical-align:top;">SERVER_PROTOCOL</td><td style="vertical-align:top;">:</td><td><div>HTTP/1.1</div></td></tr><tr><td style="font-weight:bold;vertical-align:top;">SERVER_SOFTWARE</td><td style="vertical-align:top;">:</td><td><div>Rocket 1.2.6</div></td></tr><tr><td style="font-weight:bold;vertical-align:top;">app_folders</td><td style="vertical-align:top;">:</td><td><div>set([&#x27;C:\\\\Users\\\\Kevin\\\\Desktop\\\\web2py\\\\applications\\\\admin\\\\&#x27;, &#x27;C:\\\\Users\\\\Kevin\\\\Desktop\\\\web2py\\\\applications\\\\P2P\\\\&#x27;, &#x27;C:\\\\Users\\\\Kevin\\\\Desktop\\\\web2py\\\\applications\\\\welcome\\\\&#x27;])</div></td></tr><tr><td style="font-weight:bold;vertical-align:top;">applications_parent</td><td style="vertical-align:top;">:</td><td><div>C:\\Users\\Kevin\\Desktop\\web2py</div></td></tr><tr><td style="font-weight:bold;vertical-align:top;">cmd_args</td><td style="vertical-align:top;">:</td><td><div><table></table></div></td></tr><tr><td style="font-weight:bold;vertical-align:top;">cmd_options</td><td style="vertical-align:top;">:</td><td><div>&lt;Values at 0x1bc86c0: {&#x27;verbose&#x27;: False, &#x27;ip&#x27;: &#x27;127.0.0.1&#x27;, &#x27;debuglevel&#x27;: 30, &#x27;with_scheduler&#x27;: False, &#x27;ips&#x27;: [&#x27;2001:0:9d38:6abd:4df:84e:3f57:feed&#x27;, &#x27;fe80::4df:84e:3f57:feed%8&#x27;, &#x27;fe80::6c2f:855d:fcb0:2777%9&#x27;, &#x27;192.168.1.18&#x27;], &#x27;shutdown_timeout&#x27;: 5, &#x27;taskbar&#x27;: False, &#x27;with_coverage&#x27;: False, &#x27;scheduler_groups&#x27;: None, &#x27;port&#x27;: 8000, &#x27;maxthreads&#x27;: None, &#x27;softcron&#x27;: False, &#x27;server_name&#x27;: &#x27;Kevin-VAIO&#x27;, &#x27;bpython&#x27;: False, &#x27;nogui&#x27;: False, &#x27;pid_filename&#x27;: &#x27;httpserver.pid&#x27;, &#x27;print_errors&#x27;: False, &#x27;extcron&#x27;: False, &#x27;runcron&#x27;: False, &#x27;run_system_tests&#x27;: False, &#x27;test&#x27;: None, &#x27;folder&#x27;: &#x27;C:\\\\Users\\\\Kevin\\\\Desktop\\\\web2py&#x27;, &#x27;config&#x27;: &#x27;&#x27;, &#x27;minthreads&#x27;: None, &#x27;shell&#x27;: None, &#x27;run&#x27;: &#x27;&#x27;, &#x27;log_filename&#x27;: &#x27;httpserver.log&#x27;, &#x27;profiler_dir&#x27;: None, &#x27;args&#x27;: [&#x27;&#x27;], &#x27;socket_timeout&#x27;: 5, &#x27;ssl_ca_certificate&#x27;: None, &#x27;scheduler&#x27;: None, &#x27;interfaces&#x27;: None, &#x27;ssl_private_key&#x27;: &#x27;&#x27;, &#x27;gae&#x27;: None, &#x27;password&#x27;: &#x27;&lt;ask&gt;&#x27;, &#x27;request_queue_size&#x27;: 5, &#x27;ssl_certificate&#x27;: &#x27;&#x27;, &#x27;cronjob&#x27;: False, &#x27;numthreads&#x27;: None, &#x27;quiet&#x27;: False, &#x27;import_models&#x27;: False, &#x27;timeout&#x27;: 10, &#x27;plain&#x27;: False, &#x27;nobanner&#x27;: False}&gt;</div></td></tr><tr><td style="font-weight:bold;vertical-align:top;">db_sessions</td><td style="vertical-align:top;">:</td><td><div>set([])</div></td></tr><tr><td style="font-weight:bold;vertical-align:top;">debugging</td><td style="vertical-align:top;">:</td><td><div>True</div></td></tr><tr><td style="font-weight:bold;vertical-align:top;">gluon_parent</td><td style="vertical-align:top;">:</td><td><div>C:\\Users\\Kevin\\Desktop\\web2py</div></td></tr><tr><td style="font-weight:bold;vertical-align:top;">http_accept</td><td style="vertical-align:top;">:</td><td><div>text/html,application/xhtml+xml,application/xml;q=0.9,image/webp,*/*;q=0.8</div></td></tr><tr><td style="font-weight:bold;vertical-align:top;">http_accept_encoding</td><td style="vertical-align:top;">:</td><td><div>gzip, deflate</div></td></tr><tr><td style="font-weight:bold;vertical-align:top;">http_accept_language</td><td style="vertical-align:top;">:</td><td><div>en-US,en;q=0.8</div></td></tr><tr><td style="font-weight:bold;vertical-align:top;">http_connection</td><td style="vertical-align:top;">:</td><td><div>keep-alive</div></td></tr><tr><td style="font-weight:bold;vertical-align:top;">http_cookie</td><td style="vertical-align:top;">:</td><td><div>session_id_welcome=127.0.0.1-fc345fd3-8667-446f-a100-e0786fb6f52d; session_id_admin=127.0.0.1-b3517d3b-44b2-4e6e-944c-99969815f632; session_id_p2p=127.0.0.1-20cd964d-4dd8-4c83-8f7a-27b0dcd5340f</div></td></tr><tr><td style="font-weight:bold;vertical-align:top;">http_host</td><td style="vertical-align:top;">:</td><td><div>127.0.0.1:8000</div></td></tr><tr><td style="font-weight:bold;vertical-align:top;">http_referer</td><td style="vertical-align:top;">:</td><td><div>http://127.0.0.1:8000/P2P/default/poem/1</div></td></tr><tr><td style="font-weight:bold;vertical-align:top;">http_upgrade_insecure_requests</td><td style="vertical-align:top;">:</td><td><div>1</div></td></tr><tr><td style="font-weight:bold;vertical-align:top;">http_user_agent</td><td style="vertical-align:top;">:</td><td><div>Mozilla/5.0 (Windows NT 10.0; WOW64) AppleWebKit/537.36 (KHTML, like Gecko) Chrome/48.0.2564.109 Safari/537.36</div></td></tr><tr><td style="font-weight:bold;vertical-align:top;">is_jython</td><td style="vertical-align:top;">:</td><td><div>False</div></td></tr><tr><td style="font-weight:bold;vertical-align:top;">is_pypy</td><td style="vertical-align:top;">:</td><td><div>False</div></td></tr><tr><td style="font-weight:bold;vertical-align:top;">is_source</td><td style="vertical-align:top;">:</td><td><div>False</div></td></tr><tr><td style="font-weight:bold;vertical-align:top;">local_hosts</td><td style="vertical-align:top;">:</td><td><div><table><tr><td><div>192.168.1.18</div></td></tr><tr><td><div>::ffff:127.0.0.1</div></td></tr><tr><td><div>::1</div></td></tr><tr><td><div>Kevin-VAIO</div></td></tr><tr><td><div>2001:0:9d38:6abd:4df:84e:3f57:feed</div></td></tr><tr><td><div>fe80::4df:84e:3f57:feed%8</div></td></tr><tr><td><div>fe80::6c2f:855d:fcb0:2777%9</div></td></tr><tr><td><div>127.0.0.1</div></td></tr></table></div></td></tr><tr><td style="font-weight:bold;vertical-align:top;">path_info</td><td style="vertical-align:top;">:</td><td><div>/P2P/default/add/1</div></td></tr><tr><td style="font-weight:bold;vertical-align:top;">query_string</td><td style="vertical-align:top;">:</td><td><div></div></td></tr><tr><td style="font-weight:bold;vertical-align:top;">remote_addr</td><td style="vertical-align:top;">:</td><td><div>127.0.0.1</div></td></tr><tr><td style="font-weight:bold;vertical-align:top;">remote_port</td><td style="vertical-align:top;">:</td><td><div>51885</div></td></tr><tr><td style="font-weight:bold;vertical-align:top;">request_method</td><td style="vertical-align:top;">:</td><td><div>GET</div></td></tr><tr><td style="font-weight:bold;vertical-align:top;">request_uri</td><td style="vertical-align:top;">:</td><td><div>/P2P/default/add/1</div></td></tr><tr><td style="font-weight:bold;vertical-align:top;">script_name</td><td style="vertical-align:top;">:</td><td><div></div></td></tr><tr><td style="font-weight:bold;vertical-align:top;">server_name</td><td style="vertical-align:top;">:</td><td><div>Kevin-VAIO</div></td></tr><tr><td style="font-weight:bold;vertical-align:top;">server_port</td><td style="vertical-align:top;">:</td><td><div>8000</div></td></tr><tr><td style="font-weight:bold;vertical-align:top;">server_protocol</td><td style="vertical-align:top;">:</td><td><div>HTTP/1.1</div></td></tr><tr><td style="font-weight:bold;vertical-align:top;">server_software</td><td style="vertical-align:top;">:</td><td><div>Rocket 1.2.6</div></td></tr><tr><td style="font-weight:bold;vertical-align:top;">web2py_path</td><td style="vertical-align:top;">:</td><td><div>C:\\Users\\Kevin\\Desktop\\web2py</div></td></tr><tr><td style="font-weight:bold;vertical-align:top;">web2py_version</td><td style="vertical-align:top;">:</td><td><div>2.13.4-stable+timestamp.2015.12.26.04.59.39</div></td></tr><tr><td style="font-weight:bold;vertical-align:top;">wsgi.errors</td><td style="vertical-align:top;">:</td><td><div>&lt;open file &#x27;&lt;stderr&gt;&#x27;, mode &#x27;w&#x27; at 0x00EED0D0&gt;</div></td></tr><tr><td style="font-weight:bold;vertical-align:top;">wsgi.file_wrapper</td><td style="vertical-align:top;">:</td><td><div>&lt;class wsgiref.util.FileWrapper at 0x01E0F308&gt;</div></td></tr><tr><td style="font-weight:bold;vertical-align:top;">wsgi.input</td><td style="vertical-align:top;">:</td><td><div>&lt;socket._fileobject object at 0x08C9A8B0&gt;</div></td></tr><tr><td style="font-weight:bold;vertical-align:top;">wsgi.multiprocess</td><td style="vertical-align:top;">:</td><td><div>False</div></td></tr><tr><td style="font-weight:bold;vertical-align:top;">wsgi.multithread</td><td style="vertical-align:top;">:</td><td><div>True</div></td></tr><tr><td style="font-weight:bold;vertical-align:top;">wsgi.run_once</td><td style="vertical-align:top;">:</td><td><div>False</div></td></tr><tr><td style="font-weight:bold;vertical-align:top;">wsgi.url_scheme</td><td style="vertical-align:top;">:</td><td><div>http</div></td></tr><tr><td style="font-weight:bold;vertical-align:top;">wsgi.version</td><td style="vertical-align:top;">:</td><td><div><table><tr><td><div>1</div></td></tr><tr><td><div>0</div></td></tr></table></div></td></tr><tr><td style="font-weight:bold;vertical-align:top;">wsgi_errors</td><td style="vertical-align:top;">:</td><td><div>&lt;open file &#x27;&lt;stderr&gt;&#x27;, mode &#x27;w&#x27; at 0x00EED0D0&gt;</div></td></tr><tr><td style="font-weight:bold;vertical-align:top;">wsgi_file_wrapper</td><td style="vertical-align:top;">:</td><td><div>&lt;class wsgiref.util.FileWrapper at 0x01E0F308&gt;</div></td></tr><tr><td style="font-weight:bold;vertical-align:top;">wsgi_input</td><td style="vertical-align:top;">:</td><td><div>&lt;socket._fileobject object at 0x08C9A8B0&gt;</div></td></tr><tr><td style="font-weight:bold;vertical-align:top;">wsgi_multiprocess</td><td style="vertical-align:top;">:</td><td><div>False</div></td></tr><tr><td style="font-weight:bold;vertical-align:top;">wsgi_multithread</td><td style="vertical-align:top;">:</td><td><div>True</div></td></tr><tr><td style="font-weight:bold;vertical-align:top;">wsgi_run_once</td><td style="vertical-align:top;">:</td><td><div>False</div></td></tr><tr><td style="font-weight:bold;vertical-align:top;">wsgi_url_scheme</td><td style="vertical-align:top;">:</td><td><div>http</div></td></tr><tr><td style="font-weight:bold;vertical-align:top;">wsgi_version</td><td style="vertical-align:top;">:</td><td><div><table><tr><td><div>1</div></td></tr><tr><td><div>0</div></td></tr></table></div></td></tr></table></div></td></tr><tr><td style="font-weight:bold;vertical-align:top;">extension</td><td style="vertical-align:top;">:</td><td><div>html</div></td></tr><tr><td style="font-weight:bold;vertical-align:top;">folder</td><td style="vertical-align:top;">:</td><td><div>C:\\Users\\Kevin\\Desktop\\web2py\\applications\\P2P\\</div></td></tr><tr><td style="font-weight:bold;vertical-align:top;">function</td><td style="vertical-align:top;">:</td><td><div>add</div></td></tr><tr><td style="font-weight:bold;vertical-align:top;">global_settings</td><td style="vertical-align:top;">:</td><td><div><table><tr><td style="font-weight:bold;vertical-align:top;">app_folders</td><td style="vertical-align:top;">:</td><td><div>set([&#x27;C:\\\\Users\\\\Kevin\\\\Desktop\\\\web2py\\\\applications\\\\admin\\\\&#x27;, &#x27;C:\\\\Users\\\\Kevin\\\\Desktop\\\\web2py\\\\applications\\\\P2P\\\\&#x27;, &#x27;C:\\\\Users\\\\Kevin\\\\Desktop\\\\web2py\\\\applications\\\\welcome\\\\&#x27;])</div></td></tr><tr><td style="font-weight:bold;vertical-align:top;">applications_parent</td><td style="vertical-align:top;">:</td><td><div>C:\\Users\\Kevin\\Desktop\\web2py</div></td></tr><tr><td style="font-weight:bold;vertical-align:top;">cmd_args</td><td style="vertical-align:top;">:</td><td><div><table></table></div></td></tr><tr><td style="font-weight:bold;vertical-align:top;">cmd_options</td><td style="vertical-align:top;">:</td><td><div>&lt;Values at 0x1bc86c0: {&#x27;verbose&#x27;: False, &#x27;ip&#x27;: &#x27;127.0.0.1&#x27;, &#x27;debuglevel&#x27;: 30, &#x27;with_scheduler&#x27;: False, &#x27;ips&#x27;: [&#x27;2001:0:9d38:6abd:4df:84e:3f57:feed&#x27;, &#x27;fe80::4df:84e:3f57:feed%8&#x27;, &#x27;fe80::6c2f:855d:fcb0:2777%9&#x27;, &#x27;192.168.1.18&#x27;], &#x27;shutdown_timeout&#x27;: 5, &#x27;taskbar&#x27;: False, &#x27;with_coverage&#x27;: False, &#x27;scheduler_groups&#x27;: None, &#x27;port&#x27;: 8000, &#x27;maxthreads&#x27;: None, &#x27;softcron&#x27;: False, &#x27;server_name&#x27;: &#x27;Kevin-VAIO&#x27;, &#x27;bpython&#x27;: False, &#x27;nogui&#x27;: False, &#x27;pid_filename&#x27;: &#x27;httpserver.pid&#x27;, &#x27;print_errors&#x27;: False, &#x27;extcron&#x27;: False, &#x27;runcron&#x27;: False, &#x27;run_system_tests&#x27;: False, &#x27;test&#x27;: None, &#x27;folder&#x27;: &#x27;C:\\\\Users\\\\Kevin\\\\Desktop\\\\web2py&#x27;, &#x27;config&#x27;: &#x27;&#x27;, &#x27;minthreads&#x27;: None, &#x27;shell&#x27;: None, &#x27;run&#x27;: &#x27;&#x27;, &#x27;log_filename&#x27;: &#x27;httpserver.log&#x27;, &#x27;profiler_dir&#x27;: None, &#x27;args&#x27;: [&#x27;&#x27;], &#x27;socket_timeout&#x27;: 5, &#x27;ssl_ca_certificate&#x27;: None, &#x27;scheduler&#x27;: None, &#x27;interfaces&#x27;: None, &#x27;ssl_private_key&#x27;: &#x27;&#x27;, &#x27;gae&#x27;: None, &#x27;password&#x27;: &#x27;&lt;ask&gt;&#x27;, &#x27;request_queue_size&#x27;: 5, &#x27;ssl_certificate&#x27;: &#x27;&#x27;, &#x27;cronjob&#x27;: False, &#x27;numthreads&#x27;: None, &#x27;quiet&#x27;: False, &#x27;import_models&#x27;: False, &#x27;timeout&#x27;: 10, &#x27;plain&#x27;: False, &#x27;nobanner&#x27;: False}&gt;</div></td></tr><tr><td style="font-weight:bold;vertical-align:top;">db_sessions</td><td style="vertical-align:top;">:</td><td><div>set([])</div></td></tr><tr><td style="font-weight:bold;vertical-align:top;">debugging</td><td style="vertical-align:top;">:</td><td><div>True</div></td></tr><tr><td style="font-weight:bold;vertical-align:top;">gluon_parent</td><td style="vertical-align:top;">:</td><td><div>C:\\Users\\Kevin\\Desktop\\web2py</div></td></tr><tr><td style="font-weight:bold;vertical-align:top;">is_jython</td><td style="vertical-align:top;">:</td><td><div>False</div></td></tr><tr><td style="font-weight:bold;vertical-align:top;">is_pypy</td><td style="vertical-align:top;">:</td><td><div>False</div></td></tr><tr><td style="font-weight:bold;vertical-align:top;">is_source</td><td style="vertical-align:top;">:</td><td><div>False</div></td></tr><tr><td style="font-weight:bold;vertical-align:top;">local_hosts</td><td style="vertical-align:top;">:</td><td><div><table><tr><td><div>192.168.1.18</div></td></tr><tr><td><div>::ffff:127.0.0.1</div></td></tr><tr><td><div>::1</div></td></tr><tr><td><div>Kevin-VAIO</div></td></tr><tr><td><div>2001:0:9d38:6abd:4df:84e:3f57:feed</div></td></tr><tr><td><div>fe80::4df:84e:3f57:feed%8</div></td></tr><tr><td><div>fe80::6c2f:855d:fcb0:2777%9</div></td></tr><tr><td><div>127.0.0.1</div></td></tr></table></div></td></tr><tr><td style="font-weight:bold;vertical-align:top;">web2py_version</td><td style="vertical-align:top;">:</td><td><div>2.13.4-stable+timestamp.2015.12.26.04.59.39</div></td></tr></table></div></td></tr><tr><td style="font-weight:bold;vertical-align:top;">is_https</td><td style="vertical-align:top;">:</td><td><div>False</div></td></tr><tr><td style="font-weight:bold;vertical-align:top;">is_local</td><td style="vertical-align:top;">:</td><td><div>True</div></td></tr><tr><td style="font-weight:bold;vertical-align:top;">is_restful</td><td style="vertical-align:top;">:</td><td><div>False</div></td></tr><tr><td style="font-weight:bold;vertical-align:top;">is_scheduler</td><td style="vertical-align:top;">:</td><td><div>False</div></td></tr><tr><td style="font-weight:bold;vertical-align:top;">is_shell</td><td style="vertical-align:top;">:</td><td><div>False</div></td></tr><tr><td style="font-weight:bold;vertical-align:top;">now</td><td style="vertical-align:top;">:</td><td><div>datetime.datetime(2016, 2, 18, 23, 58, 33, 833000)</div></td></tr><tr><td style="font-weight:bold;vertical-align:top;">raw_args</td><td style="vertical-align:top;">:</td><td><div>1</div></td></tr><tr><td style="font-weight:bold;vertical-align:top;">raw_extension</td><td style="vertical-align:top;">:</td><td><div>None</div></td></tr><tr><td style="font-weight:bold;vertical-align:top;">url</td><td style="vertical-align:top;">:</td><td><div>/P2P/default/add/1</div></td></tr><tr><td style="font-weight:bold;vertical-align:top;">utcnow</td><td style="vertical-align:top;">:</td><td><div>datetime.datetime(2016, 2, 19, 7, 58, 33, 833000)</div></td></tr><tr><td style="font-weight:bold;vertical-align:top;">wsgi</td><td style="vertical-align:top;">:</td><td><div>&lt;gluon.main.LazyWSGI object at 0x04213B70&gt;</div></td></tr></table></div>'
tRp70
sS'frames'
p71
(lp72
(dp73
S'file'
p74
S'C:\\Users\\Kevin\\Desktop\\web2py\\gluon\\restricted.py'
p75
sS'dump'
p76
(dp77
S'environment'
p78
S"{'A': <class 'gluon.html.A'>, 'ANY_OF': <class 'gluon.validators.ANY_OF'>, 'ASSIGNJS': <function ASSIGNJS>, 'AppConfig': <function AppConfig>, 'Auth': <class 'gluon.tools.Auth'>, 'B': <class 'gluon.html.B'>, 'BEAUTIFY': <class 'gluon.html.BEAUTIFY'>, 'BODY': <class 'gluon.html.BODY'>, 'BR': <class 'gluon.html.BR'>, 'BUTTON': <class 'gluon.html.BUTTON'>, ...}"
p79
sS'ccode'
p80
S'<code object <module> at 045B0EC0, file "C:\\User...pplications\\P2P\\controllers/default.py", line 12>'
p81
ssS'lnum'
p82
I227
sS'lines'
p83
(dp84
I224
S'            ccode = code'
p85
sI225
S'        else:'
p86
sI226
S'            ccode = compile2(code, layer)'
p87
sI227
S'        exec ccode in environment'
p88
sI228
S'    except HTTP:'
p89
sI229
S'        raise'
p90
sI230
S'    except RestrictedError:'
p91
sI231
S'        # do not encapsulate (obfuscate) the original RestrictedError'
p92
sI222
S'    try:'
p93
sI223
S'        if isinstance(code, types.CodeType):'
p94
ssS'call'
p95
S"(code='# -*- coding: utf-8 -*-\\n# this file is released ...n locals()\\n\\nresponse._vars=response._caller(add)\\n', environment={'A': <class 'gluon.html.A'>, 'ANY_OF': <class 'gluon.validators.ANY_OF'>, 'ASSIGNJS': <function ASSIGNJS>, 'AppConfig': <function AppConfig>, 'Auth': <class 'gluon.tools.Auth'>, 'B': <class 'gluon.html.B'>, 'BEAUTIFY': <class 'gluon.html.BEAUTIFY'>, 'BODY': <class 'gluon.html.BODY'>, 'BR': <class 'gluon.html.BR'>, 'BUTTON': <class 'gluon.html.BUTTON'>, ...}, layer=r'C:\\Users\\Kevin\\Desktop\\web2py\\applications\\P2P\\controllers/default.py')"
p96
sS'func'
p97
S'restricted'
p98
sa(dp99
g74
S'C:\\Users\\Kevin\\Desktop\\web2py\\applications\\P2P\\controllers\\default.py'
p100
sg76
(dp101
sg82
I178
sg83
(dp102
I167
S'        form.errors = True'
p103
sI168
S"        redirect(URL('add', args=poem.id))"
p104
sI169
S''
sI170
S'@auth.requires_login()'
p105
sI171
S'def profile():'
p106
sI172
S'    user = auth.user'
p107
sI173
S'    poem = db.poem'
p108
sI174
S'    poems_owned = db(db.poem.author == user.id).select()'
p109
sI175
S'    poems_contributed = db(db.newline.author == user.id, db.poem.id == db.newline.poem_id).select(groupby=db.poem.id)'
p110
sI176
S'    return locals()'
p111
ssg95
S'()'
p112
sg97
S'<module>'
p113
sa(dp114
g74
S'C:\\Users\\Kevin\\Desktop\\web2py\\gluon\\globals.py'
p115
sg76
(dp116
S'self'
p117
S'undefined'
p118
sS'f'
S'<function add>'
p119
ssg82
I412
sg83
(dp120
I416
S"        self.generic_patterns = ['*']"
p121
sI407
S"        self.flash = ''            # used by the default view layout"
p122
sI408
S'        self.meta = Storage()      # used by web2py_ajax.html'
p123
sI409
S'        self.menu = []             # used by the default view layout'
p124
sI410
S'        self.files = []            # used by web2py_ajax.html'
p125
sI411
S'        self._vars = None'
p126
sI412
S'        self._caller = lambda f: f()'
p127
sI413
S'        self._view_environment = None'
p128
sI414
S'        self._custom_commit = None'
p129
sI415
S'        self._custom_rollback = None'
p130
ssg95
S'(f=<function add>)'
p131
sg97
S'<lambda>'
p132
sa(dp133
g74
S'C:\\Users\\Kevin\\Desktop\\web2py\\gluon\\tools.py'
p134
sg76
(dp135
S'action'
p136
S'<function add>'
p137
sS'a'
S'()'
p138
sS'b'
S'{}'
p139
ssg82
I4236
sg83
(dp140
I4231
S'                    flag = condition'
p141
sI4232
S'                if not flag:'
p142
sI4233
S'                    current.session.flash = self.messages.access_denied'
p143
sI4234
S'                    return call_or_redirect('
p144
sI4235
S'                        self.settings.on_failed_authorization)'
p145
sI4236
S'                return action(*a, **b)'
p146
sI4237
S'            f.__doc__ = action.__doc__'
p147
sI4238
S'            f.__name__ = action.__name__'
p148
sI4239
S'            f.__dict__.update(action.__dict__)'
p149
sI4240
S'            return f'
p150
ssg95
S'(*a=(), **b={})'
p151
sg97
S'f'
sa(dp152
g74
S'C:\\Users\\Kevin\\Desktop\\web2py\\applications\\P2P\\controllers\\default.py'
p153
sg76
(dp154
S'urllib2.urlopen'
p155
S'<function urlopen>'
p156
sS'data'
p157
S"{'function': 'getRhymes', 'word': 'test'}"
p158
sS'urllib2'
p159
S"<module 'urllib2' from 'C:\\Users\\Kevin\\Desktop\\web2py\\library.zip\\urllib2.pyc'>"
p160
sS'full_url'
p161
S"'http://rhymebrain.com/talk?function=getRhymes&word=test'"
p162
ssg82
I149
sg83
(dp163
I144
S'    data = {}'
p164
sI145
S"    data['function'] = 'getRhymes'"
p165
sI146
S"    data['word'] = rhyme_word"
p166
sI147
S'    url_values = urllib.urlencode(data)'
p167
sI148
S"    full_url = url + '?' + url_values"
p168
sI149
S'    data = urllib2.urlopen(full_url)'
p169
sI150
S'    result = data.read()'
p170
sI151
S'    parsed_json = simplejson.loads(result)'
p171
sI152
S''
sI153
S'    # Create SQLFORM for the user to add a single line as a String'
p172
ssg95
S'()'
p173
sg97
S'add'
p174
sa(dp175
g74
S'C:\\Users\\Kevin\\Desktop\\web2py\\urllib2.py'
p176
sg76
(dp177
sg82
I154
sg83
(dp178
sg95
S"(url='http://rhymebrain.com/talk?function=getRhymes&word=test', data=None, timeout=<object object>, cafile=None, capath=None, cadefault=False, context=None)"
p179
sg97
S'urlopen'
p180
sa(dp181
g74
S'C:\\Users\\Kevin\\Desktop\\web2py\\urllib2.py'
p182
sg76
(dp183
sg82
I431
sg83
(dp184
sg95
S"(self=<urllib2.OpenerDirector instance>, fullurl='http://rhymebrain.com/talk?function=getRhymes&word=test', data=None, timeout=<object object>)"
p185
sg97
S'open'
p186
sa(dp187
g74
S'C:\\Users\\Kevin\\Desktop\\web2py\\urllib2.py'
p188
sg76
(dp189
sg82
I449
sg83
(dp190
sg95
S'(self=<urllib2.OpenerDirector instance>, req=<urllib2.Request instance>, data=None)'
p191
sg97
S'_open'
p192
sa(dp193
g74
S'C:\\Users\\Kevin\\Desktop\\web2py\\urllib2.py'
p194
sg76
(dp195
sg82
I409
sg83
(dp196
sg95
S"(self=<urllib2.OpenerDirector instance>, chain={'file': [<urllib2.FileHandler instance>], 'ftp': [<urllib2.FTPHandler instance>], 'http': [<urllib2.HTTPHandler instance>], 'https': [<urllib2.HTTPSHandler instance>], 'unknown': [<urllib2.UnknownHandler instance>]}, kind='http', meth_name='http_open', *args=(<urllib2.Request instance>,))"
p197
sg97
S'_call_chain'
p198
sa(dp199
g74
S'C:\\Users\\Kevin\\Desktop\\web2py\\urllib2.py'
p200
sg76
(dp201
sg82
I1227
sg83
(dp202
sg95
S'(self=<urllib2.HTTPHandler instance>, req=<urllib2.Request instance>)'
p203
sg97
S'http_open'
p204
sa(dp205
g74
S'C:\\Users\\Kevin\\Desktop\\web2py\\urllib2.py'
p206
sg76
(dp207
sg82
I1197
sg83
(dp208
sg95
S'(self=<urllib2.HTTPHandler instance>, http_class=<class httplib.HTTPConnection>, req=<urllib2.Request instance>, **http_conn_args={})'
p209
sg97
S'do_open'
p210
sasS'pyver'
p211
S'Python 2.7.9: C:\\Users\\Kevin\\Desktop\\web2py\\web2py.exe (prefix: )'
p212
sS'session'
p213
g69
(S'st\t\x00\x00<div><table><tr><td style="font-weight:bold;vertical-align:top;">auth</td><td style="vertical-align:top;">:</td><td><div><table><tr><td style="font-weight:bold;vertical-align:top;">expiration</td><td style="vertical-align:top;">:</td><td><div>3600</div></td></tr><tr><td style="font-weight:bold;vertical-align:top;">hmac_key</td><td style="vertical-align:top;">:</td><td><div>c44fc79e-df7a-4f41-90b6-ea07105e269f</div></td></tr><tr><td style="font-weight:bold;vertical-align:top;">last_visit</td><td style="vertical-align:top;">:</td><td><div>datetime.datetime(2016, 2, 18, 23, 57, 20, 514000)</div></td></tr><tr><td style="font-weight:bold;vertical-align:top;">remember_me</td><td style="vertical-align:top;">:</td><td><div>False</div></td></tr><tr><td style="font-weight:bold;vertical-align:top;">user</td><td style="vertical-align:top;">:</td><td><div><table><tr><td style="font-weight:bold;vertical-align:top;">email</td><td style="vertical-align:top;">:</td><td><div>default@email.com</div></td></tr><tr><td style="font-weight:bold;vertical-align:top;">first_name</td><td style="vertical-align:top;">:</td><td><div>default</div></td></tr><tr><td style="font-weight:bold;vertical-align:top;">id</td><td style="vertical-align:top;">:</td><td><div>4L</div></td></tr><tr><td style="font-weight:bold;vertical-align:top;">last_name</td><td style="vertical-align:top;">:</td><td><div>default</div></td></tr><tr><td style="font-weight:bold;vertical-align:top;">registration_id</td><td style="vertical-align:top;">:</td><td><div></div></td></tr><tr><td style="font-weight:bold;vertical-align:top;">registration_key</td><td style="vertical-align:top;">:</td><td><div></div></td></tr><tr><td style="font-weight:bold;vertical-align:top;">reset_password_key</td><td style="vertical-align:top;">:</td><td><div></div></td></tr><tr><td style="font-weight:bold;vertical-align:top;">username</td><td style="vertical-align:top;">:</td><td><div>default</div></td></tr></table></div></td></tr><tr><td style="font-weight:bold;vertical-align:top;">user_groups</td><td style="vertical-align:top;">:</td><td><div><table><tr><td style="font-weight:bold;vertical-align:top;">4</td><td style="vertical-align:top;">:</td><td><div>user_4</div></td></tr></table></div></td></tr></table></div></td></tr><tr><td style="font-weight:bold;vertical-align:top;">flash</td><td style="vertical-align:top;">:</td><td><div>None</div></td></tr></table></div>'
tRp214
sS'etype'
p215
S"<class 'urllib2.URLError'>"
p216
sS'date'
p217
S'Thu Feb 18 23:58:45 2016'
p218
sS'response'
p219
g69
(S's4?\x00\x00<div><table><tr><td style="font-weight:bold;vertical-align:top;">body</td><td style="vertical-align:top;">:</td><td><div>&lt;cStringIO.StringO object at 0x04B4CCE0&gt;</div></td></tr><tr><td style="font-weight:bold;vertical-align:top;">cookies</td><td style="vertical-align:top;">:</td><td><div><table><tr><td style="font-weight:bold;vertical-align:top;">session_id_p2p</td><td style="vertical-align:top;">:</td><td><div>127.0.0.1-20cd964d-4dd8-4c83-8f7a-27b0dcd5340f<table><tr><td style="font-weight:bold;vertical-align:top;">comment</td><td style="vertical-align:top;">:</td><td><div></div></td></tr><tr><td style="font-weight:bold;vertical-align:top;">domain</td><td style="vertical-align:top;">:</td><td><div></div></td></tr><tr><td style="font-weight:bold;vertical-align:top;">expires</td><td style="vertical-align:top;">:</td><td><div></div></td></tr><tr><td style="font-weight:bold;vertical-align:top;">httponly</td><td style="vertical-align:top;">:</td><td><div></div></td></tr><tr><td style="font-weight:bold;vertical-align:top;">max-age</td><td style="vertical-align:top;">:</td><td><div></div></td></tr><tr><td style="font-weight:bold;vertical-align:top;">path</td><td style="vertical-align:top;">:</td><td><div>/</div></td></tr><tr><td style="font-weight:bold;vertical-align:top;">secure</td><td style="vertical-align:top;">:</td><td><div></div></td></tr><tr><td style="font-weight:bold;vertical-align:top;">version</td><td style="vertical-align:top;">:</td><td><div></div></td></tr></table></div></td></tr></table></div></td></tr><tr><td style="font-weight:bold;vertical-align:top;">delimiters</td><td style="vertical-align:top;">:</td><td><div><table><tr><td><div>{{</div></td></tr><tr><td><div>}}</div></td></tr></table></div></td></tr><tr><td style="font-weight:bold;vertical-align:top;">files</td><td style="vertical-align:top;">:</td><td><div><table></table></div></td></tr><tr><td style="font-weight:bold;vertical-align:top;">flash</td><td style="vertical-align:top;">:</td><td><div></div></td></tr><tr><td style="font-weight:bold;vertical-align:top;">form_label_separator</td><td style="vertical-align:top;">:</td><td><div></div></td></tr><tr><td style="font-weight:bold;vertical-align:top;">formstyle</td><td style="vertical-align:top;">:</td><td><div>bootstrap3_inline</div></td></tr><tr><td style="font-weight:bold;vertical-align:top;">generic_patterns</td><td style="vertical-align:top;">:</td><td><div><table><tr><td><div>*</div></td></tr></table></div></td></tr><tr><td style="font-weight:bold;vertical-align:top;">google_analytics_id</td><td style="vertical-align:top;">:</td><td><div>None</div></td></tr><tr><td style="font-weight:bold;vertical-align:top;">headers</td><td style="vertical-align:top;">:</td><td><div><table><tr><td style="font-weight:bold;vertical-align:top;">X-Powered-By</td><td style="vertical-align:top;">:</td><td><div>web2py</div></td></tr></table></div></td></tr><tr><td style="font-weight:bold;vertical-align:top;">logo</td><td style="vertical-align:top;">:</td><td><div><a class="navbar-brand" href="index" id="web2py-logo"><b>web<span>2</span>py</b>&trade;&nbsp;</a></div></td></tr><tr><td style="font-weight:bold;vertical-align:top;">menu</td><td style="vertical-align:top;">:</td><td><div><table><tr><td><div><table><tr><td><div>Home</div></td></tr><tr><td><div>False</div></td></tr><tr><td><div>/P2P/default/index</div></td></tr><tr><td><div><table></table></div></td></tr></table></div></td></tr><tr><td><div><table><tr><td><div>My Sites</div></td></tr><tr><td><div>False</div></td></tr><tr><td><div>/admin/default/site</div></td></tr></table></div></td></tr><tr><td><div><table><tr><td><div>This App</div></td></tr><tr><td><div>False</div></td></tr><tr><td><div>#</div></td></tr><tr><td><div><table><tr><td><div><table><tr><td><div>Design</div></td></tr><tr><td><div>False</div></td></tr><tr><td><div>/admin/default/design/P2P</div></td></tr></table></div></td></tr><tr><td><div><li class="divider"></li></div></td></tr><tr><td><div><table><tr><td><div>Controller</div></td></tr><tr><td><div>False</div></td></tr><tr><td><div>/admin/default/edit/P2P/controllers/default.py</div></td></tr></table></div></td></tr><tr><td><div><table><tr><td><div>View</div></td></tr><tr><td><div>False</div></td></tr><tr><td><div>/admin/default/edit/P2P/views/default/add.html</div></td></tr></table></div></td></tr><tr><td><div><table><tr><td><div>DB Model</div></td></tr><tr><td><div>False</div></td></tr><tr><td><div>/admin/default/edit/P2P/models/db.py</div></td></tr></table></div></td></tr><tr><td><div><table><tr><td><div>Menu Model</div></td></tr><tr><td><div>False</div></td></tr><tr><td><div>/admin/default/edit/P2P/models/menu.py</div></td></tr></table></div></td></tr><tr><td><div><table><tr><td><div>Config.ini</div></td></tr><tr><td><div>False</div></td></tr><tr><td><div>/admin/default/edit/P2P/private/appconfig.ini</div></td></tr></table></div></td></tr><tr><td><div><table><tr><td><div>Layout</div></td></tr><tr><td><div>False</div></td></tr><tr><td><div>/admin/default/edit/P2P/views/layout.html</div></td></tr></table></div></td></tr><tr><td><div><table><tr><td><div>Stylesheet</div></td></tr><tr><td><div>False</div></td></tr><tr><td><div>/admin/default/edit/P2P/static/css/web2py-bootstrap3.css</div></td></tr></table></div></td></tr><tr><td><div><table><tr><td><div>Database</div></td></tr><tr><td><div>False</div></td></tr><tr><td><div>/P2P/appadmin/index</div></td></tr></table></div></td></tr><tr><td><div><table><tr><td><div>Errors</div></td></tr><tr><td><div>False</div></td></tr><tr><td><div>/admin/default/errors/P2P</div></td></tr></table></div></td></tr><tr><td><div><table><tr><td><div>About</div></td></tr><tr><td><div>False</div></td></tr><tr><td><div>/admin/default/about/P2P</div></td></tr></table></div></td></tr></table></div></td></tr></table></div></td></tr><tr><td><div><table><tr><td><div>web2py.com</div></td></tr><tr><td><div>False</div></td></tr><tr><td><div>#</div></td></tr><tr><td><div><table><tr><td><div><table><tr><td><div>Download</div></td></tr><tr><td><div>False</div></td></tr><tr><td><div>http://www.web2py.com/examples/default/download</div></td></tr></table></div></td></tr><tr><td><div><table><tr><td><div>Support</div></td></tr><tr><td><div>False</div></td></tr><tr><td><div>http://www.web2py.com/examples/default/support</div></td></tr></table></div></td></tr><tr><td><div><table><tr><td><div>Demo</div></td></tr><tr><td><div>False</div></td></tr><tr><td><div>http://web2py.com/demo_admin</div></td></tr></table></div></td></tr><tr><td><div><table><tr><td><div>Quick Examples</div></td></tr><tr><td><div>False</div></td></tr><tr><td><div>http://web2py.com/examples/default/examples</div></td></tr></table></div></td></tr><tr><td><div><table><tr><td><div>FAQ</div></td></tr><tr><td><div>False</div></td></tr><tr><td><div>http://web2py.com/AlterEgo</div></td></tr></table></div></td></tr><tr><td><div><table><tr><td><div>Videos</div></td></tr><tr><td><div>False</div></td></tr><tr><td><div>http://www.web2py.com/examples/default/videos/</div></td></tr></table></div></td></tr><tr><td><div><table><tr><td><div>Free Applications</div></td></tr><tr><td><div>False</div></td></tr><tr><td><div>http://web2py.com/appliances</div></td></tr></table></div></td></tr><tr><td><div><table><tr><td><div>Plugins</div></td></tr><tr><td><div>False</div></td></tr><tr><td><div>http://web2py.com/plugins</div></td></tr></table></div></td></tr><tr><td><div><table><tr><td><div>Recipes</div></td></tr><tr><td><div>False</div></td></tr><tr><td><div>http://web2pyslices.com/</div></td></tr></table></div></td></tr></table></div></td></tr></table></div></td></tr><tr><td><div><table><tr><td><div>Documentation</div></td></tr><tr><td><div>False</div></td></tr><tr><td><div>#</div></td></tr><tr><td><div><table><tr><td><div><table><tr><td><div>Online book</div></td></tr><tr><td><div>False</div></td></tr><tr><td><div>http://www.web2py.com/book</div></td></tr></table></div></td></tr><tr><td><div><li class="divider"></li></div></td></tr><tr><td><div><table><tr><td><div>Preface</div></td></tr><tr><td><div>False</div></td></tr><tr><td><div>http://www.web2py.com/book/default/chapter/00</div></td></tr></table></div></td></tr><tr><td><div><table><tr><td><div>Introduction</div></td></tr><tr><td><div>False</div></td></tr><tr><td><div>http://www.web2py.com/book/default/chapter/01</div></td></tr></table></div></td></tr><tr><td><div><table><tr><td><div>Python</div></td></tr><tr><td><div>False</div></td></tr><tr><td><div>http://www.web2py.com/book/default/chapter/02</div></td></tr></table></div></td></tr><tr><td><div><table><tr><td><div>Overview</div></td></tr><tr><td><div>False</div></td></tr><tr><td><div>http://www.web2py.com/book/default/chapter/03</div></td></tr></table></div></td></tr><tr><td><div><table><tr><td><div>The Core</div></td></tr><tr><td><div>False</div></td></tr><tr><td><div>http://www.web2py.com/book/default/chapter/04</div></td></tr></table></div></td></tr><tr><td><div><table><tr><td><div>The Views</div></td></tr><tr><td><div>False</div></td></tr><tr><td><div>http://www.web2py.com/book/default/chapter/05</div></td></tr></table></div></td></tr><tr><td><div><table><tr><td><div>Database</div></td></tr><tr><td><div>False</div></td></tr><tr><td><div>http://www.web2py.com/book/default/chapter/06</div></td></tr></table></div></td></tr><tr><td><div><table><tr><td><div>Forms and Validators</div></td></tr><tr><td><div>False</div></td></tr><tr><td><div>http://www.web2py.com/book/default/chapter/07</div></td></tr></table></div></td></tr><tr><td><div><table><tr><td><div>Email and SMS</div></td></tr><tr><td><div>False</div></td></tr><tr><td><div>http://www.web2py.com/book/default/chapter/08</div></td></tr></table></div></td></tr><tr><td><div><table><tr><td><div>Access Control</div></td></tr><tr><td><div>False</div></td></tr><tr><td><div>http://www.web2py.com/book/default/chapter/09</div></td></tr></table></div></td></tr><tr><td><div><table><tr><td><div>Services</div></td></tr><tr><td><div>False</div></td></tr><tr><td><div>http://www.web2py.com/book/default/chapter/10</div></td></tr></table></div></td></tr><tr><td><div><table><tr><td><div>Ajax Recipes</div></td></tr><tr><td><div>False</div></td></tr><tr><td><div>http://www.web2py.com/book/default/chapter/11</div></td></tr></table></div></td></tr><tr><td><div><table><tr><td><div>Components and Plugins</div></td></tr><tr><td><div>False</div></td></tr><tr><td><div>http://www.web2py.com/book/default/chapter/12</div></td></tr></table></div></td></tr><tr><td><div><table><tr><td><div>Deployment Recipes</div></td></tr><tr><td><div>False</div></td></tr><tr><td><div>http://www.web2py.com/book/default/chapter/13</div></td></tr></table></div></td></tr><tr><td><div><table><tr><td><div>Other Recipes</div></td></tr><tr><td><div>False</div></td></tr><tr><td><div>http://www.web2py.com/book/default/chapter/14</div></td></tr></table></div></td></tr><tr><td><div><table><tr><td><div>Helping web2py</div></td></tr><tr><td><div>False</div></td></tr><tr><td><div>http://www.web2py.com/book/default/chapter/15</div></td></tr></table></div></td></tr><tr><td><div><table><tr><td><div>Buy web2py\'s book</div></td></tr><tr><td><div>False</div></td></tr><tr><td><div>http://stores.lulu.com/web2py</div></td></tr></table></div></td></tr></table></div></td></tr></table></div></td></tr><tr><td><div><table><tr><td><div>Community</div></td></tr><tr><td><div>False</div></td></tr><tr><td><div>None</div></td></tr><tr><td><div><table><tr><td><div><table><tr><td><div>Groups</div></td></tr><tr><td><div>False</div></td></tr><tr><td><div>http://www.web2py.com/examples/default/usergroups</div></td></tr></table></div></td></tr><tr><td><div><table><tr><td><div>Twitter</div></td></tr><tr><td><div>False</div></td></tr><tr><td><div>http://twitter.com/web2py</div></td></tr></table></div></td></tr><tr><td><div><table><tr><td><div>Live Chat</div></td></tr><tr><td><div>False</div></td></tr><tr><td><div>http://webchat.freenode.net/?channels=web2py</div></td></tr></table></div></td></tr></table></div></td></tr></table></div></td></tr></table></div></td></tr><tr><td style="font-weight:bold;vertical-align:top;">meta</td><td style="vertical-align:top;">:</td><td><div><table><tr><td style="font-weight:bold;vertical-align:top;">author</td><td style="vertical-align:top;">:</td><td><div>Your Name &lt;you@example.com&gt;</div></td></tr><tr><td style="font-weight:bold;vertical-align:top;">description</td><td style="vertical-align:top;">:</td><td><div>a cool new app</div></td></tr><tr><td style="font-weight:bold;vertical-align:top;">generator</td><td style="vertical-align:top;">:</td><td><div>Web2py Web Framework</div></td></tr><tr><td style="font-weight:bold;vertical-align:top;">keywords</td><td style="vertical-align:top;">:</td><td><div>web2py, python, framework</div></td></tr></table></div></td></tr><tr><td style="font-weight:bold;vertical-align:top;">models_to_run</td><td style="vertical-align:top;">:</td><td><div><table><tr><td><div>^\\w+\\.py$</div></td></tr><tr><td><div>^default/\\w+\\.py$</div></td></tr><tr><td><div>^default/add/\\w+\\.py$</div></td></tr></table></div></td></tr><tr><td style="font-weight:bold;vertical-align:top;">postprocessing</td><td style="vertical-align:top;">:</td><td><div><table></table></div></td></tr><tr><td style="font-weight:bold;vertical-align:top;">session_client</td><td style="vertical-align:top;">:</td><td><div>127.0.0.1</div></td></tr><tr><td style="font-weight:bold;vertical-align:top;">session_cookie_compression_level</td><td style="vertical-align:top;">:</td><td><div>None</div></td></tr><tr><td style="font-weight:bold;vertical-align:top;">session_cookie_expires</td><td style="vertical-align:top;">:</td><td><div>None</div></td></tr><tr><td style="font-weight:bold;vertical-align:top;">session_cookie_key</td><td style="vertical-align:top;">:</td><td><div>None</div></td></tr><tr><td style="font-weight:bold;vertical-align:top;">session_data_name</td><td style="vertical-align:top;">:</td><td><div>session_data_p2p</div></td></tr><tr><td style="font-weight:bold;vertical-align:top;">session_file</td><td style="vertical-align:top;">:</td><td><div>&lt;open file &#x27;C:\\\\Users\\\\Kevin\\\\Desktop\\\\web2py\\\\applications\\\\P2P\\\\sessions\\\\0a7\\\\145\\\\127.0.0.1-20cd964d-4dd8-4c83-8f7a-27b0dcd5340f&#x27;, mode &#x27;rb+&#x27; at 0x04976230&gt;</div></td></tr><tr><td style="font-weight:bold;vertical-align:top;">session_filename</td><td style="vertical-align:top;">:</td><td><div>C:\\Users\\Kevin\\Desktop\\web2py\\applications\\P2P\\sessions\\127.0.0.1-20cd964d-4dd8-4c83-8f7a-27b0dcd5340f</div></td></tr><tr><td style="font-weight:bold;vertical-align:top;">session_hash</td><td style="vertical-align:top;">:</td><td><div>4b99c490af008a08742419eeb802b681</div></td></tr><tr><td style="font-weight:bold;vertical-align:top;">session_id</td><td style="vertical-align:top;">:</td><td><div>127.0.0.1-20cd964d-4dd8-4c83-8f7a-27b0dcd5340f</div></td></tr><tr><td style="font-weight:bold;vertical-align:top;">session_id_name</td><td style="vertical-align:top;">:</td><td><div>session_id_p2p</div></td></tr><tr><td style="font-weight:bold;vertical-align:top;">session_locked</td><td style="vertical-align:top;">:</td><td><div>True</div></td></tr><tr><td style="font-weight:bold;vertical-align:top;">session_masterapp</td><td style="vertical-align:top;">:</td><td><div>P2P</div></td></tr><tr><td style="font-weight:bold;vertical-align:top;">session_new</td><td style="vertical-align:top;">:</td><td><div>False</div></td></tr><tr><td style="font-weight:bold;vertical-align:top;">session_storage_type</td><td style="vertical-align:top;">:</td><td><div>file</div></td></tr><tr><td style="font-weight:bold;vertical-align:top;">status</td><td style="vertical-align:top;">:</td><td><div>200</div></td></tr><tr><td style="font-weight:bold;vertical-align:top;">subtitle</td><td style="vertical-align:top;">:</td><td><div></div></td></tr><tr><td style="font-weight:bold;vertical-align:top;">title</td><td style="vertical-align:top;">:</td><td><div>P2P</div></td></tr><tr><td style="font-weight:bold;vertical-align:top;">view</td><td style="vertical-align:top;">:</td><td><div>default/add.html</div></td></tr></table></div>'
tRp220
sS'locals'
p221
(dp222
S'err'
p223
S"gaierror(11001, 'getaddrinfo failed')"
p224
sS'h'
S'<httplib.HTTPConnection instance>'
p225
sS'self'
p226
S'<urllib2.HTTPHandler instance>'
p227
sS'req'
p228
S'<urllib2.Request instance>'
p229
sS'headers'
p230
S"{'Connection': 'close', 'Host': 'rhymebrain.com', 'User-Agent': 'Python-urllib/2.7'}"
p231
sS'host'
p232
S"'rhymebrain.com'"
p233
sS'http_class'
p234
S'<class httplib.HTTPConnection>'
p235
sS'http_conn_args'
p236
g139
sssS'traceback'
p237
S'Traceback (most recent call last):\n  File "C:\\Users\\Kevin\\Desktop\\web2py\\gluon\\restricted.py", line 227, in restricted\n    exec ccode in environment\n  File "C:\\Users\\Kevin\\Desktop\\web2py\\applications\\P2P\\controllers/default.py", line 178, in <module>\n  File "C:\\Users\\Kevin\\Desktop\\web2py\\gluon\\globals.py", line 412, in <lambda>\n    self._caller = lambda f: f()\n  File "C:\\Users\\Kevin\\Desktop\\web2py\\gluon\\tools.py", line 4236, in f\n    return action(*a, **b)\n  File "C:\\Users\\Kevin\\Desktop\\web2py\\applications\\P2P\\controllers/default.py", line 149, in add\n    data = urllib2.urlopen(full_url)\n  File "urllib2.py", line 154, in urlopen\n  File "urllib2.py", line 431, in open\n  File "urllib2.py", line 449, in _open\n  File "urllib2.py", line 409, in _call_chain\n  File "urllib2.py", line 1227, in http_open\n  File "urllib2.py", line 1197, in do_open\nURLError: <urlopen error [Errno 11001] getaddrinfo failed>\n'
p238
s.