(dp1
S'output'
p2
S"<type 'exceptions.TypeError'> 'NoneType' object is not iterable"
p3
sS'layer'
p4
S'C:\\Users\\Jason\\Downloads\\web2py\\applications\\P2P\\views\\default/poem.html'
p5
sS'code'
p6
S'response.write(\'<!DOCTYPE html>\\r\\n\\r\\n\\r\\n<!--[if (gt IE 9)|!(IE)]><!--> <html class="no-js" lang="\', escape=False)\nresponse.write(T.accepted_language or \'en\')\nresponse.write(\'"> <!--<![endif]-->\\r\\n  <head>\\r\\n    <meta charset="utf-8">\\r\\n    <!-- www.phpied.com/conditional-comments-block-downloads/ -->\\r\\n    <!-- Always force latest IE rendering engine\\r\\n         (even in intranet) & Chrome Frame\\r\\n         Remove this if you use the .htaccess -->\\r\\n    <meta http-equiv="X-UA-Compatible" content="IE=edge\', escape=False)\nresponse.write(not request.is_local and \',chrome=1\' or \'\')\nresponse.write(\'">\\r\\n    <!--  Mobile Viewport Fix\\r\\n          j.mp/mobileviewport & davidbcalhoun.com/2010/viewport-metatag\\r\\n          device-width: Occupy full width of the screen in its current orientation\\r\\n          initial-scale = 1.0 retains dimensions instead of zooming out if page height > device height\\r\\n          user-scalable = yes allows the user to zoom in -->\\r\\n    <meta name="viewport" content="width=device-width, initial-scale=1.0">\\r\\n    <title>\', escape=False)\nresponse.write(response.title or request.application)\nresponse.write(\'</title>\\r\\n    <!-- http://dev.w3.org/html5/markup/meta.name.html -->\\r\\n    <meta name="application-name" content="\', escape=False)\nresponse.write(request.application)\nresponse.write(\'">\\r\\n    <!-- Speaking of Google, don\\\'t forget to set your site up:\\r\\n         http://google.com/webmasters -->\\r\\n    <meta name="google-site-verification" content="">\\r\\n    <!-- include stylesheets -->\\r\\n    <link rel="stylesheet" href="\', escape=False)\nresponse.write(URL(\'static\',\'css/bootstrap.min.css\'))\nresponse.write(\'"/>\\r\\n    <link rel="stylesheet" href="\', escape=False)\nresponse.write(URL(\'static\',\'css/web2py-bootstrap3.css\'))\nresponse.write(\'"/>\\r\\n    <link rel="shortcut icon" href="\', escape=False)\nresponse.write(URL(\'static\',\'images/favicon.ico\'))\nresponse.write(\'" type="image/x-icon">\\r\\n    <link rel="apple-touch-icon" href="\', escape=False)\nresponse.write(URL(\'static\',\'images/favicon.png\'))\nresponse.write(\'">\\r\\n    <!-- All JavaScript at the bottom, except for Modernizr which enables\\r\\n         HTML5 elements & feature detects -->\\r\\n    <script src="\', escape=False)\nresponse.write(URL(\'static\',\'js/modernizr-2.8.3.min.js\'))\nresponse.write(\'"></script>\\r\\n    <!--[if lt IE 9]>\\r\\n        <script src="\', escape=False)\nresponse.write(URL(\'static\',\'js/respond-1.4.2.min.js\'))\nresponse.write(\'"></script>\\r\\n        <![endif]-->\\r\\n    <!-- Favicons -->\\r\\n    \', escape=False)\nresponse.write(\'<script type="text/javascript"><!--\\r\\n    // These variables are used by the web2py_ajax_init function in web2py_ajax.js (which is loaded below).\\r\\n    var w2p_ajax_confirm_message = "\', escape=False)\nresponse.write(T(\'Are you sure you want to delete this object?\'))\nresponse.write(\'";\\r\\n    var w2p_ajax_disable_with_message = "\', escape=False)\nresponse.write(T(\'Working...\'))\nresponse.write(\'";\\r\\n    var w2p_ajax_date_format = "\', escape=False)\nresponse.write(T(\'%Y-%m-%d\'))\nresponse.write(\'";\\r\\n    var w2p_ajax_datetime_format = "\', escape=False)\nresponse.write(T(\'%Y-%m-%d %H:%M:%S\'))\nresponse.write(\'";\\r\\n    var ajax_error_500 = \\\'\', escape=False)\nresponse.write(T.M(\'An error occured, please [[reload %s]] the page\') % URL(args=request.args, vars=request.get_vars))\nresponse.write("\'\\r\\n    //--></script>\\r\\n", escape=False)\nresponse.files.insert(0,URL(\'static\',\'js/jquery.js\'))\nresponse.files.insert(1,URL(\'static\',\'css/calendar.css\'))\nresponse.files.insert(2,URL(\'static\',\'js/calendar.js\'))\nresponse.files.insert(3,URL(\'static\',\'js/web2py.js\'))\nresponse.include_meta()\nresponse.include_files()\nresponse.write(\'\\r\\n\', escape=False)\nresponse.write(\' <!-- this includes jquery.js, calendar.js/.css and web2py.js -->\\r\\n    \', escape=False)\nresponse.write(\'\\r\\n    \', escape=False)\n# using sidebars need to know what sidebar you want to use\nmc0 = \'col-md-12\'\nmc1 = \'col-md-9\'\nmc2 = \'col-md-6\'\nleft_sidebar_enabled = globals().get(\'left_sidebar_enabled\', False)\nright_sidebar_enabled = globals().get(\'right_sidebar_enabled\', False)\nmiddle_column = {0: mc0, 1: mc1, 2: mc2}[\n(left_sidebar_enabled and 1 or 0)+(right_sidebar_enabled and 1 or 0)]\nresponse.write(\'\\r\\n  </head>\\r\\n  <body>\\r\\n    <!--[if lt IE 8]><p class="browserupgrade">You are using an <strong>outdated</strong> browser. Please <a href="http://browsehappy.com/">upgrade your browser</a> to improve your experience.</p><![endif]-->\\r\\n    <div class="w2p_flash alert alert-dismissable">\', escape=False)\nresponse.write(response.flash or \'\')\nresponse.write(\'</div>\\r\\n    <!-- Navbar ======================================= -->\\r\\n    <nav class="navbar navbar-default navbar-fixed-top" role="navigation">\\r\\n      <div class="container-fluid">\\r\\n        <div class="navbar-header">\\r\\n          <button type="button" class="navbar-toggle" data-toggle="collapse" data-target=".navbar-collapse">\\r\\n            <span class="sr-only">Toggle navigation</span>\\r\\n            <span class="icon-bar"></span>\\r\\n            <span class="icon-bar"></span>\\r\\n            <span class="icon-bar"></span>\\r\\n          </button>\\r\\n          \', escape=False)\nresponse.write(response.logo or \'\')\nresponse.write(\'\\r\\n        </div>\\r\\n        <div class="collapse navbar-collapse navbar-ex1-collapse">\\r\\n          <ul class="nav navbar-nav navbar-right">\\r\\n            \', escape=False)\nresponse.write(\'auth\' in globals() and auth.navbar(\'Welcome\',mode=\'dropdown\') or \'\')\nresponse.write(\'\\r\\n          </ul>\\r\\n          \', escape=False)\nif response.menu:\n    response.write(\'\\r\\n          \', escape=False)\n    response.write(MENU(response.menu, _class=\'nav navbar-nav\',li_class=\'dropdown\',ul_class=\'dropdown-menu\'))\n    response.write(\'\\r\\n          \', escape=False)\n    pass\nresponse.write(\'\\r\\n        </div>\\r\\n      </div>\\r\\n    </nav>\\r\\n    <!-- Masthead ===================================== -->    \\r\\n    \', escape=False)\nresponse.write(\'\\r\\n    \', escape=False)\nresponse.write(\'\\r\\n    <!-- Main ========================================= -->\\r\\n    <!-- Begin page content -->\\r\\n    <div class="container-fluid main-container">\\r\\n      \', escape=False)\nif left_sidebar_enabled:\n    response.write(\'\\r\\n        <div class="col-md-3 left-sidebar">\\r\\n            \', escape=False)\n    response.write(\'\\r\\n            <h3>Left Sidebar</h3>\\r\\n            <p></p>\\r\\n            \', escape=False)\n    response.write(\'\\r\\n        </div>\\r\\n      \', escape=False)\n    pass\nresponse.write(\'\\r\\n\\r\\n      <div class="\', escape=False)\nresponse.write(middle_column)\nresponse.write(\'">\\r\\n        \', escape=False)\nresponse.write(\'\\r\\n        \', escape=False)\nresponse.write(\'\\r\\n<input type=button style = "position:relative;" align = "left" onClick="location.href=\\\'\', escape=False)\nresponse.write(URL(\'browse\'))\nresponse.write(\'\\\'" value =\\\'Go back to Browse Poems\\\'>\\r\\n\', escape=False)\nvoteFunny = 0\nresponse.write(\'\\r\\n\', escape=False)\nvoteInteresting = 0\nresponse.write(\'\\r\\n\', escape=False)\nvoteCool = 0\nresponse.write(\'\\r\\n\', escape=False)\nvotedFunny = False\nresponse.write(\'\\r\\n\', escape=False)\nvotedInteresting = False\nresponse.write(\'\\r\\n\', escape=False)\nvotedCool = False\nresponse.write(\'\\r\\n\', escape=False)\nfor rates in rating:\n    response.write(\'\\r\\n    \', escape=False)\n    voteFunny += rates.voteFunny\n    response.write(\'\\r\\n    \', escape=False)\n    voteInteresting += rates.voteInteresting\n    response.write(\'\\r\\n    \', escape=False)\n    voteCool += rates.voteCool\n    response.write(\'\\r\\n    \', escape=False)\n    if (rates.author == auth.user.id) and (rates.voteFunny == 1):\n        response.write(\'\\r\\n        \', escape=False)\n        votedFunny = True\n        response.write(\'\\r\\n    \', escape=False)\n        pass\n    response.write(\'\\r\\n    \', escape=False)\n    if (rates.author == auth.user.id) and (rates.voteInteresting == 1):\n        response.write(\'\\r\\n        \', escape=False)\n        votedInteresting = True\n        response.write(\'\\r\\n    \', escape=False)\n        pass\n    response.write(\'\\r\\n    \', escape=False)\n    if (rates.author == auth.user.id) and (rates.voteCool == 1):\n        response.write(\'\\r\\n        \', escape=False)\n        votedCool = True\n        response.write(\'\\r\\n    \', escape=False)\n        pass\n    response.write(\'\\r\\n\', escape=False)\n    pass\nresponse.write(\'\\r\\n\\r\\n<h1 align = "center"><i>\', escape=False)\nresponse.write(poem.title)\nresponse.write(\'</i></h1>\\r\\n</br>\\r\\n\\r\\n\', escape=False)\nif (poem.category == \'16 line ABAB rhyme\') or (poem.category == \'16 line AABB rhyme\') or (poem.category == \'Sonnet\') or (poem.category == \'Limerick\') or (poem.category == \'AAAA\'):\n    response.write(\'\\r\\n<center>\\r\\n    <div style="width:750px;overflow:auto" class = "center"><pre ><font size = "3"><a href="#" data-toggle="tooltip" data-placement="right" title="\', escape=False)\n    response.write(poem.author.username)\n    response.write(\'"style="color: #000000"><div class = "left"><font color = "#9900ff"><b>1  | </b></font></div>\', escape=False)\n    if poem.category == \'Sonnet\':\n        response.write(\' <div class = "left">\', escape=False)\n        response.write(abab.body.splitlines()[0])\n        response.write(\'</div> \', escape=False)\n    else:\n        response.write(abab.body.splitlines()[0])\n        pass\n    response.write(\'<font color = "#9900ff">\\r\\n<div class = "left"><b>2  | </b></div></font>\', escape=False)\n    if poem.category == \'Sonnet\':\n        response.write(\'<div class = "left">\', escape=False)\n        response.write(abab.body.splitlines()[1])\n        response.write(\'</div>\', escape=False)\n    else:\n        response.write(abab.body.splitlines()[1])\n        pass\n    response.write(\'</a>\', escape=False)\n    if lines:\n        for line in lines:\n            response.write(\'</br><a href="#" data-toggle="tooltip" data-placement="right" title="\', escape=False)\n            response.write(line.author.username)\n            response.write(\'"style="color: #000000">\', escape=False)\n            if line.line_number > 9:\n                response.write(\'<font color = "#9900ff"><b><div class = "left">\', escape=False)\n                response.write(line.line_number)\n                response.write(\' | </div></b></font>\', escape=False)\n                if poem.category == \'Sonnet\':\n                    response.write(\'<div class = "left">\', escape=False)\n                    if (poem.category == \'Sonnet\') and (line.line_number > 12):\n                        response.write(\'   \', escape=False)\n                        pass\n                    response.write(line.line)\n                    response.write(\'</div>\', escape=False)\n                else:\n                    response.write(line.line)\n                    pass\n            else:\n                response.write(\'<font color = "#9900ff"><div class = "left"><b>\', escape=False)\n                response.write(line.line_number)\n                response.write(\'  | </b></div></font>\', escape=False)\n                if poem.category == \'Sonnet\':\n                    response.write(\'<div class = "left">\', escape=False)\n                    response.write(line.line)\n                    response.write(\'</div>\', escape=False)\n                else:\n                    response.write(line.line)\n                    pass\n                pass\n            if line.line == \'\':\n                response.write(\'<a href="\', escape=False)\n                response.write(URL(\'specialadd\',args= (poem.id,line.line_number)))\n                response.write(\'" style="color: #ff0000">Deleted Line: Click Here to Add the Line\', escape=False)\n                pass\n            response.write(\'</a>\', escape=False)\n            if (line.line_number % 4 == 0) and (16 > line.line_number) and (poem.category != \'Sonnet\') and (poem.category != \'Limerick\') and (poem.category != \'AAAA\'):\n                response.write(\' </br> \', escape=False)\n                pass\n            pass\n        pass\n    response.write(\'</font></pre></div></div></center>\\r\\n\\r\\n\', escape=False)\nelif poem.category == \'Haiku\':\n    response.write(\'\\r\\n\', escape=False)\n    line2 = True\n    response.write(\'\\r\\n\', escape=False)\n    line3 = True\n    response.write(\'\\r\\n\\r\\n<center>\\r\\n<div style="width:750px;overflow:auto" class = "center"><pre ><font size = "3"><div class = "left"><font color = "#9900ff"><b>1  | </b></font></div><a href="#" data-toggle="tooltip" data-placement="right" title="\', escape=False)\n    response.write(poem.author.username)\n    response.write(\'">\', escape=False)\n    response.write(haiku.start_haiku)\n    response.write(\'</a>\', escape=False)\n    if words:\n        for word in words:\n            if word.word == \'\':\n                response.write(\'<a href="\', escape=False)\n                response.write(URL(\'specialadd\',args= (poem.id,word.word_number)))\n                response.write(\'" style="color: #ff0000">Add Word\', escape=False)\n                pass\n            response.write(\'</a>\', escape=False)\n            if (word.line_count == 2) and (line2 == True):\n                response.write(\'</br><div class = "left"><font color = "#9900ff"><b>2  | </b></font></div>\', escape=False)\n                line2 = False\n                pass\n            if (word.line_count == 3) and (line3 == True):\n                response.write(\'</br><div class = "left"><font color = "#9900ff"><b>3  | </b></font></div>\', escape=False)\n                line3 = False\n                pass\n            response.write(\' <a href="#" data-toggle="tooltip" data-placement="right" title="\', escape=False)\n            response.write(word.author.username)\n            response.write(\'">\', escape=False)\n            response.write(word.word)\n            response.write(\'</a>\', escape=False)\n            pass\n        pass\n    response.write(\'</font></div></pre></div></center>\\r\\n\', escape=False)\nelif poem.category == \'10 line Syllabic Verse\':\n    response.write(\'\\r\\n\', escape=False)\n    line2 = True\n    response.write(\'\\r\\n\', escape=False)\n    line3 = True\n    response.write(\'\\r\\n\', escape=False)\n    line4 = True\n    response.write(\'\\r\\n\', escape=False)\n    line5 = True\n    response.write(\'\\r\\n\', escape=False)\n    line6 = True\n    response.write(\'\\r\\n\', escape=False)\n    line7 = True\n    response.write(\'\\r\\n\', escape=False)\n    line8 = True\n    response.write(\'\\r\\n\', escape=False)\n    line9 = True\n    response.write(\'\\r\\n\', escape=False)\n    line10 = True\n    response.write(\'\\r\\n<center>\\r\\n    <div style="width:750px;overflow:auto" class = "center"><pre ><font size = "3"><div class = "left"><font color = "#9900ff"><b>1  | </b></font></div><a href="#" data-toggle="tooltip" data-placement="right" title="\', escape=False)\n    response.write(poem.author.username)\n    response.write(\'"><div class = "left">\', escape=False)\n    response.write(haiku.start_haiku)\n    response.write(\'</div></a>\', escape=False)\n    if words:\n        for word in words:\n            if word.word == \'\':\n                response.write(\'<a href="\', escape=False)\n                response.write(URL(\'specialadd\',args= (poem.id,word.word_number)))\n                response.write(\'" style="color: #ff0000">Add Word\', escape=False)\n                pass\n            response.write(\'</a>\', escape=False)\n            if (word.line_count == 2) and (line2 == True):\n                response.write(\'</br><div class = "left"><font color = "#9900ff"><b>2  | </b></font></div>\', escape=False)\n                line2 = False\n                pass\n            if (word.line_count == 3) and (line3 == True):\n                response.write(\'</br><div class = "left"><font color = "#9900ff"><b>3  | </b></font></div>\', escape=False)\n                line3 = False\n                pass\n            if (word.line_count == 4) and (line4 == True):\n                response.write(\'</br><div class = "left"><font color = "#9900ff"><b>4  | </b></font></div>\', escape=False)\n                line4 = False\n                pass\n            if (word.line_count == 5) and (line5 == True):\n                response.write(\'</br><div class = "left"><font color = "#9900ff"><b>5  | </b></font></div>\', escape=False)\n                line5 = False\n                pass\n            if (word.line_count == 6) and (line6 == True):\n                response.write(\'</br><div class = "left"><font color = "#9900ff"><b>6  | </b></font></div>\', escape=False)\n                line6 = False\n                pass\n            if (word.line_count == 7) and (line7 == True):\n                response.write(\'</br><div class = "left"><font color = "#9900ff"><b>7  | </b></font></div>\', escape=False)\n                line7 = False\n                pass\n            if (word.line_count == 7) and (line7 == True):\n                response.write(\'</br><div class = "left"><font color = "#9900ff"><b>7  | </b></font></div>\', escape=False)\n                line7 = False\n                pass\n            if (word.line_count == 8) and (line8 == True):\n                response.write(\'</br><div class = "left"><font color = "#9900ff"><b>8  | </b></font></div>\', escape=False)\n                line8 = False\n                pass\n            if (word.line_count == 9) and (line9 == True):\n                response.write(\'</br><div class = "left"><font color = "#9900ff"><b>9  | </b></font></div>\', escape=False)\n                line9 = False\n                pass\n            if (word.line_count == 10) and (line10 == True):\n                response.write(\'</br><div class = "left"><font color = "#9900ff"><b>10 | </b></font></div>\', escape=False)\n                line10 = False\n                pass\n            response.write(\' <a href="#" data-toggle="tooltip" data-placement="right" title="\', escape=False)\n            response.write(word.author.username)\n            response.write(\'"><div class = "left">\', escape=False)\n            response.write(word.word)\n            response.write(\' </div></a>\', escape=False)\n            pass\n        pass\n    response.write(\'</font></div></div></pre></div></center>\\r\\n\\r\\n\', escape=False)\nelif poem.category == \'Acrostic\':\n    response.write(\'\\r\\n\\r\\n<center>\\r\\n    <h3>The Word: \', escape=False)\n    response.write(acrostic.word)\n    response.write(\'</h3>\\r\\n    <div style="width:750px;overflow:auto" class = "center"><pre><font size = "5"><div class = "left">\', escape=False)\n    for line in lines:\n        response.write(line.line[0].capitalize())\n        for i in range(1,len(line.line)):\n            response.write(\'<font size = "3">\', escape=False)\n            response.write(line.line[i])\n            response.write(\'</font>\', escape=False)\n            pass\n        response.write(\'</br>\', escape=False)\n        pass\n    response.write(\'</div></font></pre></div></center>\\r\\n\', escape=False)\n    pass\nresponse.write(\'\\r\\n<center>\\r\\n<h4>\\r\\n    Type of Poem: \', escape=False)\nresponse.write(poem.category)\nresponse.write(\'</br>\\r\\n    Author: \', escape=False)\nresponse.write(db.auth_user(poem.author).username)\nresponse.write(\'\\r\\n    </br>\\r\\n    Contributors: \', escape=False)\nif contributors:\n    for person in contributors:\n        response.write(db.auth_user(person.author).username)\n        response.write(\' \', escape=False)\n        pass\n    pass\nresponse.write(\'\\r\\n</h4>\\r\\n\\r\\n\\r\\n</br>\\r\\n</br>\\r\\n<h4>Poem Description: </h4>\\r\\n<div style="width:500px;overflow:auto"><p>\', escape=False)\nresponse.write(poem.description)\nresponse.write(\'</p></div>\\r\\n\\r\\n\', escape=False)\nif (poem.category == \'16 line ABAB rhyme\' and 16 > abab.line_count) or (poem.category == \'16 line AABB rhyme\'and 16 > abab.line_count) or (poem.category == \'Sonnet\' and 14 > abab.line_count) or (poem.category == \'Limerick\' and 5 > abab.line_count) or (poem.category == \'AAAA\' and 8 > abab.line_count) or (poem.category == \'Acrostic\' and len(list(acrostic.word)) > acrostic.line_count) :\n    response.write(\'\\r\\n<input type=button style = "position:relative;" onClick="location.href=\\\'\', escape=False)\n    response.write(URL(\'add_check\',args=poem.id))\n    response.write(\'\\\'" value =\\\'Add line to poem\\\'>\\r\\n\', escape=False)\n    pass\nresponse.write(\'\\r\\n\', escape=False)\nif (poem.category == \'Haiku\' and 17 > haiku.syllable_count) or (poem.category == "10 line Syllabic Verse" and 55 > haiku.syllable_count):\n    response.write(\'\\r\\n<input type=button style = "position:relative;" onClick="location.href=\\\'\', escape=False)\n    response.write(URL(\'add_check\',args=poem.id))\n    response.write(\'\\\'" value =\\\'Add word to poem\\\'>\\r\\n\', escape=False)\n    pass\nresponse.write(\'\\r\\n\\r\\n\', escape=False)\nif (auth.user_id == poem.author) and  (poem.permission == \'Private\'):\n    response.write(\'\\r\\n<h2 align = "center">\\r\\n    <u>Added Permissions</u>\\r\\n</h2>\\r\\n\\r\\n<h4 align = "center">\\r\\n    Here you can add the username that you allow to edit your private poem.\\r\\n</h4>\\r\\n</br>\\r\\n<h4 align = "center">\\r\\n   \', escape=False)\n    response.write(forms)\n    response.write(\'\\r\\n</h4>\\r\\n<input type=button id=delete_poem style = "position:relative;" value =\\\'Delete Poem\\\'>\\r\\n\', escape=False)\n    pass\nresponse.write(\'\\r\\n</br></br>\\r\\n\\r\\n</br>\\r\\n</center>\\r\\n<h4>\\r\\n    Votes for Funny : \', escape=False)\nresponse.write(voteFunny)\nresponse.write(\'</br>\\r\\nVotes for Interesting : \', escape=False)\nresponse.write(voteInteresting)\nresponse.write(\'</br>\\r\\nVote for Cool: \', escape=False)\nresponse.write(voteCool)\nresponse.write(\'\\r\\n</h4>\\r\\n\', escape=False)\nif poem.author != auth.user_id:\n    response.write(\'\\r\\n\\r\\n    <h4>Vote if you think the poem is Funny, Interesting, or Cool or even all here:</h4></br>\\r\\n    \', escape=False)\n    if votedFunny == False:\n        response.write(\' <input type=image style = "position:relative;" onClick="window.location=\\\'\', escape=False)\n        response.write(URL(\'default\',\'upVoteFunny\',args=poem.id))\n        response.write(\'\\\'" src = "/P2P/static/images/funnyblue.png/" width = "100px" heigth = "100px" value =\\\'UpVote for Funny\\\'> \', escape=False)\n    else:\n        response.write(\'<input type=image style = "position:relative;" onClick="window.location=\\\'\', escape=False)\n        response.write(URL(\'default\',\'unVoteFunny\',args=poem.id))\n        response.write(\'\\\'" src = "/P2P/static/images/funnygreen.png/" width = "100px" heigth = "100px" value =\\\'UpVote for Funny\\\'> \', escape=False)\n        pass\n    response.write(\'\\r\\n    \', escape=False)\n    if votedInteresting == False:\n        response.write(\'<input type=image style = "position:relative;" onClick="window.location=\\\'\', escape=False)\n        response.write(URL(\'default\',\'upVoteInteresting\',args=poem.id))\n        response.write(\'\\\'" src = "/P2P/static/images/interestingblue.png/" width = "100px" heigth = "100px" value =\\\'UpVote for Interesting\\\'>\', escape=False)\n    else:\n        response.write(\'<input type=image style = "position:relative;" onClick="window.location=\\\'\', escape=False)\n        response.write(URL(\'default\',\'unVoteInteresting\',args=poem.id))\n        response.write(\'\\\'" src = "/P2P/static/images/interestinggreen.png/" width = "100px" heigth = "100px" value =\\\'UpVote for Funny\\\'>\', escape=False)\n        pass\n    response.write(\'\\r\\n \', escape=False)\n    if votedCool == False:\n        response.write(\'<input type=image style = "position:relative;" onClick="window.location=\\\'\', escape=False)\n        response.write(URL(\'default\',\'upVoteCool\',args=poem.id))\n        response.write(\'\\\'" src = "/P2P/static/images/coolblue.png/" width = "100px" heigth = "100px" value =\\\'UpVote for Cool\\\'>\', escape=False)\n    else:\n        response.write(\'<input type=image style = "position:relative;" onClick="window.location=\\\'\', escape=False)\n        response.write(URL(\'default\',\'unVoteCool\',args=poem.id))\n        response.write(\'\\\'" src = "/P2P/static/images/coolgreen.png/" width = "100px" heigth = "100px" value =\\\'UpVote for Funny\\\'>\', escape=False)\n        pass\n    response.write(\'\\r\\n\', escape=False)\n    pass\nresponse.write(\'\\r\\n<script>\\r\\n$(document).ready(function(){\\r\\n    $(\\\'[data-toggle="tooltip"]\\\').tooltip();\\r\\n    $(\\\'#delete_poem\\\').click(function() {\\r\\n    if (confirm(\\\'Are you sure?\\\')) {\\r\\n        window.location.href=\\\'\', escape=False)\nresponse.write(URL(\'browse\'))\nresponse.write("\';\\r\\n    }\\r\\n  });\\r\\n});\\r\\n</script>\\r\\n", escape=False)\npass\nresponse.write(\'\\r\\n\', escape=False)\nresponse.write(\'\\r\\n        \', escape=False)\nresponse.write(\'\\r\\n      </div>\\r\\n\\r\\n      \', escape=False)\nif right_sidebar_enabled:\n    response.write(\'\\r\\n        <div class="col-md-3">\\r\\n            \', escape=False)\n    response.write(\'\\r\\n            <h3>Right Sidebar</h3>\\r\\n            <p></p>\\r\\n            \', escape=False)\n    response.write(\'\\r\\n        </div>\\r\\n      \', escape=False)\n    pass\nresponse.write(\'\\r\\n\\r\\n    </div>\\r\\n\\r\\n\\r\\n    <!-- The javascript =============================== -->\\r\\n    <script src="\', escape=False)\nresponse.write(URL(\'static\',\'js/bootstrap.min.js\'))\nresponse.write(\'"></script>\\r\\n    <script src="\', escape=False)\nresponse.write(URL(\'static\',\'js/web2py-bootstrap3.js\'))\nresponse.write(\'"></script>\\r\\n    \', escape=False)\nresponse.write(\'\\r\\n    \', escape=False)\nif response.google_analytics_id:\n    response.write(\'\\r\\n    <!-- Analytics ==================================== -->\\r\\n    <script src="\', escape=False)\n    response.write(URL(\'static\',\'js/analytics.min.js\'))\n    response.write(\'"></script>\\r\\n    <script type="text/javascript">\\r\\n      analytics.initialize({\\r\\n      \\\'Google Analytics\\\':{trackingId:\\\'\', escape=False)\n    response.write(response.google_analytics_id)\n    response.write("\'}\\r\\n      });\\r\\n    </script>\\r\\n    ", escape=False)\n    pass\nresponse.write(\'\\r\\n    <!-- Share ============================y============ -->\\r\\n    <script src="\', escape=False)\nresponse.write(URL(\'static\',\'js/share.js\',vars=dict(static=URL(\'static\',\'images\'))))\nresponse.write(\'"></script>\\r\\n  </body>\\r\\n</html>\\r\\n\', escape=False)'
p7
sS'snapshot'
p8
(dp9
S'exception'
p10
(dp11
S'__hash__'
p12
S"<method-wrapper '__hash__' of exceptions.TypeError object>"
p13
sS'__setattr__'
p14
S"<method-wrapper '__setattr__' of exceptions.TypeError object>"
p15
sS'__reduce_ex__'
p16
S'<built-in method __reduce_ex__ of exceptions.TypeError object>'
p17
sS'__getslice__'
p18
S"<method-wrapper '__getslice__' of exceptions.TypeError object>"
p19
sS'__getitem__'
p20
S"<method-wrapper '__getitem__' of exceptions.TypeError object>"
p21
sS'__setstate__'
p22
S'<built-in method __setstate__ of exceptions.TypeError object>'
p23
sS'__reduce__'
p24
S'<built-in method __reduce__ of exceptions.TypeError object>'
p25
sS'__str__'
p26
S"<method-wrapper '__str__' of exceptions.TypeError object>"
p27
sS'__format__'
p28
S'<built-in method __format__ of exceptions.TypeError object>'
p29
sS'__getattribute__'
p30
S"<method-wrapper '__getattribute__' of exceptions.TypeError object>"
p31
sS'__class__'
p32
S"<type 'exceptions.TypeError'>"
p33
sS'__unicode__'
p34
S'<built-in method __unicode__ of exceptions.TypeError object>'
p35
sS'__delattr__'
p36
S"<method-wrapper '__delattr__' of exceptions.TypeError object>"
p37
sS'__subclasshook__'
p38
S'<built-in method __subclasshook__ of type object>'
p39
sS'__repr__'
p40
S"<method-wrapper '__repr__' of exceptions.TypeError object>"
p41
sS'args'
p42
S'("\'NoneType\' object is not iterable",)'
p43
sS'__dict__'
p44
S'{}'
p45
sS'__sizeof__'
p46
S'<built-in method __sizeof__ of exceptions.TypeError object>'
p47
sS'__doc__'
p48
S"'Inappropriate argument type.'"
p49
sS'__init__'
p50
S"<method-wrapper '__init__' of exceptions.TypeError object>"
p51
sS'__new__'
p52
S'<built-in method __new__ of type object>'
p53
ssS'evalue'
p54
S"'NoneType' object is not iterable"
p55
sS'request'
p56
cgluon.html
XML_unpickle
p57
(S's\xd9p\x00\x00<div><table><tr><td style="font-weight:bold;vertical-align:top;">ajax</td><td style="vertical-align:top;">:</td><td><div>False</div></td></tr><tr><td style="font-weight:bold;vertical-align:top;">application</td><td style="vertical-align:top;">:</td><td><div>P2P</div></td></tr><tr><td style="font-weight:bold;vertical-align:top;">args</td><td style="vertical-align:top;">:</td><td><div><table><tr><td><div>63</div></td></tr></table></div></td></tr><tr><td style="font-weight:bold;vertical-align:top;">cid</td><td style="vertical-align:top;">:</td><td><div>None</div></td></tr><tr><td style="font-weight:bold;vertical-align:top;">client</td><td style="vertical-align:top;">:</td><td><div>127.0.0.1</div></td></tr><tr><td style="font-weight:bold;vertical-align:top;">controller</td><td style="vertical-align:top;">:</td><td><div>default</div></td></tr><tr><td style="font-weight:bold;vertical-align:top;">cookies</td><td style="vertical-align:top;">:</td><td><div><table><tr><td style="font-weight:bold;vertical-align:top;">session_id_admin</td><td style="vertical-align:top;">:</td><td><div>127.0.0.1-4c5bfc7c-1d59-43d4-ad21-18065e6c5ead<table><tr><td style="font-weight:bold;vertical-align:top;">comment</td><td style="vertical-align:top;">:</td><td><div></div></td></tr><tr><td style="font-weight:bold;vertical-align:top;">domain</td><td style="vertical-align:top;">:</td><td><div></div></td></tr><tr><td style="font-weight:bold;vertical-align:top;">expires</td><td style="vertical-align:top;">:</td><td><div></div></td></tr><tr><td style="font-weight:bold;vertical-align:top;">httponly</td><td style="vertical-align:top;">:</td><td><div></div></td></tr><tr><td style="font-weight:bold;vertical-align:top;">max-age</td><td style="vertical-align:top;">:</td><td><div></div></td></tr><tr><td style="font-weight:bold;vertical-align:top;">path</td><td style="vertical-align:top;">:</td><td><div></div></td></tr><tr><td style="font-weight:bold;vertical-align:top;">secure</td><td style="vertical-align:top;">:</td><td><div></div></td></tr><tr><td style="font-weight:bold;vertical-align:top;">version</td><td style="vertical-align:top;">:</td><td><div></div></td></tr></table></div></td></tr><tr><td style="font-weight:bold;vertical-align:top;">session_id_homework_2</td><td style="vertical-align:top;">:</td><td><div>127.0.0.1-c8f1cb80-5f6f-4ae9-9820-484893fa04da<table><tr><td style="font-weight:bold;vertical-align:top;">comment</td><td style="vertical-align:top;">:</td><td><div></div></td></tr><tr><td style="font-weight:bold;vertical-align:top;">domain</td><td style="vertical-align:top;">:</td><td><div></div></td></tr><tr><td style="font-weight:bold;vertical-align:top;">expires</td><td style="vertical-align:top;">:</td><td><div></div></td></tr><tr><td style="font-weight:bold;vertical-align:top;">httponly</td><td style="vertical-align:top;">:</td><td><div></div></td></tr><tr><td style="font-weight:bold;vertical-align:top;">max-age</td><td style="vertical-align:top;">:</td><td><div></div></td></tr><tr><td style="font-weight:bold;vertical-align:top;">path</td><td style="vertical-align:top;">:</td><td><div></div></td></tr><tr><td style="font-weight:bold;vertical-align:top;">secure</td><td style="vertical-align:top;">:</td><td><div></div></td></tr><tr><td style="font-weight:bold;vertical-align:top;">version</td><td style="vertical-align:top;">:</td><td><div></div></td></tr></table></div></td></tr><tr><td style="font-weight:bold;vertical-align:top;">session_id_hw21</td><td style="vertical-align:top;">:</td><td><div>127.0.0.1-c6701d6d-3194-4f2b-bd6c-31d002f55f58<table><tr><td style="font-weight:bold;vertical-align:top;">comment</td><td style="vertical-align:top;">:</td><td><div></div></td></tr><tr><td style="font-weight:bold;vertical-align:top;">domain</td><td style="vertical-align:top;">:</td><td><div></div></td></tr><tr><td style="font-weight:bold;vertical-align:top;">expires</td><td style="vertical-align:top;">:</td><td><div></div></td></tr><tr><td style="font-weight:bold;vertical-align:top;">httponly</td><td style="vertical-align:top;">:</td><td><div></div></td></tr><tr><td style="font-weight:bold;vertical-align:top;">max-age</td><td style="vertical-align:top;">:</td><td><div></div></td></tr><tr><td style="font-weight:bold;vertical-align:top;">path</td><td style="vertical-align:top;">:</td><td><div></div></td></tr><tr><td style="font-weight:bold;vertical-align:top;">secure</td><td style="vertical-align:top;">:</td><td><div></div></td></tr><tr><td style="font-weight:bold;vertical-align:top;">version</td><td style="vertical-align:top;">:</td><td><div></div></td></tr></table></div></td></tr><tr><td style="font-weight:bold;vertical-align:top;">session_id_hw23</td><td style="vertical-align:top;">:</td><td><div>127.0.0.1-d06a198c-0768-4330-9065-1ba4b1b2071e<table><tr><td style="font-weight:bold;vertical-align:top;">comment</td><td style="vertical-align:top;">:</td><td><div></div></td></tr><tr><td style="font-weight:bold;vertical-align:top;">domain</td><td style="vertical-align:top;">:</td><td><div></div></td></tr><tr><td style="font-weight:bold;vertical-align:top;">expires</td><td style="vertical-align:top;">:</td><td><div></div></td></tr><tr><td style="font-weight:bold;vertical-align:top;">httponly</td><td style="vertical-align:top;">:</td><td><div></div></td></tr><tr><td style="font-weight:bold;vertical-align:top;">max-age</td><td style="vertical-align:top;">:</td><td><div></div></td></tr><tr><td style="font-weight:bold;vertical-align:top;">path</td><td style="vertical-align:top;">:</td><td><div></div></td></tr><tr><td style="font-weight:bold;vertical-align:top;">secure</td><td style="vertical-align:top;">:</td><td><div></div></td></tr><tr><td style="font-weight:bold;vertical-align:top;">version</td><td style="vertical-align:top;">:</td><td><div></div></td></tr></table></div></td></tr><tr><td style="font-weight:bold;vertical-align:top;">session_id_p2p</td><td style="vertical-align:top;">:</td><td><div>127.0.0.1-83b6d8d5-5519-4fb9-a5b6-84b4f72519e7<table><tr><td style="font-weight:bold;vertical-align:top;">comment</td><td style="vertical-align:top;">:</td><td><div></div></td></tr><tr><td style="font-weight:bold;vertical-align:top;">domain</td><td style="vertical-align:top;">:</td><td><div></div></td></tr><tr><td style="font-weight:bold;vertical-align:top;">expires</td><td style="vertical-align:top;">:</td><td><div></div></td></tr><tr><td style="font-weight:bold;vertical-align:top;">httponly</td><td style="vertical-align:top;">:</td><td><div></div></td></tr><tr><td style="font-weight:bold;vertical-align:top;">max-age</td><td style="vertical-align:top;">:</td><td><div></div></td></tr><tr><td style="font-weight:bold;vertical-align:top;">path</td><td style="vertical-align:top;">:</td><td><div></div></td></tr><tr><td style="font-weight:bold;vertical-align:top;">secure</td><td style="vertical-align:top;">:</td><td><div></div></td></tr><tr><td style="font-weight:bold;vertical-align:top;">version</td><td style="vertical-align:top;">:</td><td><div></div></td></tr></table></div></td></tr><tr><td style="font-weight:bold;vertical-align:top;">session_id_welcome</td><td style="vertical-align:top;">:</td><td><div>127.0.0.1-43619f45-f674-4e92-b9bc-2aef6fcd71d3<table><tr><td style="font-weight:bold;vertical-align:top;">comment</td><td style="vertical-align:top;">:</td><td><div></div></td></tr><tr><td style="font-weight:bold;vertical-align:top;">domain</td><td style="vertical-align:top;">:</td><td><div></div></td></tr><tr><td style="font-weight:bold;vertical-align:top;">expires</td><td style="vertical-align:top;">:</td><td><div></div></td></tr><tr><td style="font-weight:bold;vertical-align:top;">httponly</td><td style="vertical-align:top;">:</td><td><div></div></td></tr><tr><td style="font-weight:bold;vertical-align:top;">max-age</td><td style="vertical-align:top;">:</td><td><div></div></td></tr><tr><td style="font-weight:bold;vertical-align:top;">path</td><td style="vertical-align:top;">:</td><td><div></div></td></tr><tr><td style="font-weight:bold;vertical-align:top;">secure</td><td style="vertical-align:top;">:</td><td><div></div></td></tr><tr><td style="font-weight:bold;vertical-align:top;">version</td><td style="vertical-align:top;">:</td><td><div></div></td></tr></table></div></td></tr></table></div></td></tr><tr><td style="font-weight:bold;vertical-align:top;">env</td><td style="vertical-align:top;">:</td><td><div><table><tr><td style="font-weight:bold;vertical-align:top;">HTTP_ACCEPT</td><td style="vertical-align:top;">:</td><td><div>text/html,application/xhtml+xml,application/xml;q=0.9,image/webp,*/*;q=0.8</div></td></tr><tr><td style="font-weight:bold;vertical-align:top;">HTTP_ACCEPT_ENCODING</td><td style="vertical-align:top;">:</td><td><div>gzip, deflate, sdch</div></td></tr><tr><td style="font-weight:bold;vertical-align:top;">HTTP_ACCEPT_LANGUAGE</td><td style="vertical-align:top;">:</td><td><div>en-US,en;q=0.8</div></td></tr><tr><td style="font-weight:bold;vertical-align:top;">HTTP_CONNECTION</td><td style="vertical-align:top;">:</td><td><div>keep-alive</div></td></tr><tr><td style="font-weight:bold;vertical-align:top;">HTTP_COOKIE</td><td style="vertical-align:top;">:</td><td><div>session_id_hw21=127.0.0.1-c6701d6d-3194-4f2b-bd6c-31d002f55f58; session_id_homework_2=127.0.0.1-c8f1cb80-5f6f-4ae9-9820-484893fa04da; session_id_hw23=127.0.0.1-d06a198c-0768-4330-9065-1ba4b1b2071e; session_id_welcome=127.0.0.1-43619f45-f674-4e92-b9bc-2aef6fcd71d3; session_id_admin=127.0.0.1-4c5bfc7c-1d59-43d4-ad21-18065e6c5ead; session_id_p2p=127.0.0.1-83b6d8d5-5519-4fb9-a5b6-84b4f72519e7</div></td></tr><tr><td style="font-weight:bold;vertical-align:top;">HTTP_HOST</td><td style="vertical-align:top;">:</td><td><div>127.0.0.1:8000</div></td></tr><tr><td style="font-weight:bold;vertical-align:top;">HTTP_REFERER</td><td style="vertical-align:top;">:</td><td><div>http://127.0.0.1:8000/P2P/default/browse/0</div></td></tr><tr><td style="font-weight:bold;vertical-align:top;">HTTP_UPGRADE_INSECURE_REQUESTS</td><td style="vertical-align:top;">:</td><td><div>1</div></td></tr><tr><td style="font-weight:bold;vertical-align:top;">HTTP_USER_AGENT</td><td style="vertical-align:top;">:</td><td><div>Mozilla/5.0 (Windows NT 6.1; WOW64) AppleWebKit/537.36 (KHTML, like Gecko) Chrome/48.0.2564.116 Safari/537.36</div></td></tr><tr><td style="font-weight:bold;vertical-align:top;">PATH_INFO</td><td style="vertical-align:top;">:</td><td><div>/P2P/default/poem/63</div></td></tr><tr><td style="font-weight:bold;vertical-align:top;">QUERY_STRING</td><td style="vertical-align:top;">:</td><td><div></div></td></tr><tr><td style="font-weight:bold;vertical-align:top;">REMOTE_ADDR</td><td style="vertical-align:top;">:</td><td><div>127.0.0.1</div></td></tr><tr><td style="font-weight:bold;vertical-align:top;">REMOTE_PORT</td><td style="vertical-align:top;">:</td><td><div>57508</div></td></tr><tr><td style="font-weight:bold;vertical-align:top;">REQUEST_METHOD</td><td style="vertical-align:top;">:</td><td><div>GET</div></td></tr><tr><td style="font-weight:bold;vertical-align:top;">SCRIPT_NAME</td><td style="vertical-align:top;">:</td><td><div></div></td></tr><tr><td style="font-weight:bold;vertical-align:top;">SERVER_NAME</td><td style="vertical-align:top;">:</td><td><div>Witidek</div></td></tr><tr><td style="font-weight:bold;vertical-align:top;">SERVER_PORT</td><td style="vertical-align:top;">:</td><td><div>8000</div></td></tr><tr><td style="font-weight:bold;vertical-align:top;">SERVER_PROTOCOL</td><td style="vertical-align:top;">:</td><td><div>HTTP/1.1</div></td></tr><tr><td style="font-weight:bold;vertical-align:top;">SERVER_SOFTWARE</td><td style="vertical-align:top;">:</td><td><div>Rocket 1.2.6</div></td></tr><tr><td style="font-weight:bold;vertical-align:top;">app_folders</td><td style="vertical-align:top;">:</td><td><div>set([&#x27;C:\\\\Users\\\\Jason\\\\Downloads\\\\web2py\\\\applications\\\\welcome\\\\&#x27;, &#x27;C:\\\\Users\\\\Jason\\\\Downloads\\\\web2py\\\\applications\\\\admin\\\\&#x27;, &#x27;C:\\\\Users\\\\Jason\\\\Downloads\\\\web2py\\\\applications\\\\P2P\\\\&#x27;])</div></td></tr><tr><td style="font-weight:bold;vertical-align:top;">applications_parent</td><td style="vertical-align:top;">:</td><td><div>C:\\Users\\Jason\\Downloads\\web2py</div></td></tr><tr><td style="font-weight:bold;vertical-align:top;">cmd_args</td><td style="vertical-align:top;">:</td><td><div><table></table></div></td></tr><tr><td style="font-weight:bold;vertical-align:top;">cmd_options</td><td style="vertical-align:top;">:</td><td><div>&lt;Values at 0x34175d0: {&#x27;verbose&#x27;: False, &#x27;ip&#x27;: &#x27;127.0.0.1&#x27;, &#x27;debuglevel&#x27;: 30, &#x27;with_scheduler&#x27;: False, &#x27;ips&#x27;: [&#x27;fe80::c4d9:80a7:6927:91dc%20&#x27;, &#x27;fe80::ad25:41ef:cc7a:b5f4%16&#x27;, &#x27;fe80::7910:6b7f:64e5:6055%24&#x27;, &#x27;192.168.1.7&#x27;, &#x27;fe80::80aa:bcc3:c776:b57a%23&#x27;, &#x27;192.168.56.1&#x27;, &#x27;192.168.109.1&#x27;, &#x27;192.168.158.1&#x27;], &#x27;shutdown_timeout&#x27;: 5, &#x27;taskbar&#x27;: False, &#x27;with_coverage&#x27;: False, &#x27;scheduler_groups&#x27;: None, &#x27;port&#x27;: 8000, &#x27;maxthreads&#x27;: None, &#x27;softcron&#x27;: False, &#x27;server_name&#x27;: &#x27;Witidek&#x27;, &#x27;bpython&#x27;: False, &#x27;nogui&#x27;: False, &#x27;pid_filename&#x27;: &#x27;httpserver.pid&#x27;, &#x27;print_errors&#x27;: False, &#x27;extcron&#x27;: False, &#x27;runcron&#x27;: False, &#x27;run_system_tests&#x27;: False, &#x27;test&#x27;: None, &#x27;folder&#x27;: &#x27;C:\\\\Users\\\\Jason\\\\Downloads\\\\web2py&#x27;, &#x27;config&#x27;: &#x27;&#x27;, &#x27;minthreads&#x27;: None, &#x27;shell&#x27;: None, &#x27;run&#x27;: &#x27;&#x27;, &#x27;log_filename&#x27;: &#x27;httpserver.log&#x27;, &#x27;profiler_dir&#x27;: None, &#x27;args&#x27;: [&#x27;&#x27;], &#x27;socket_timeout&#x27;: 5, &#x27;ssl_ca_certificate&#x27;: None, &#x27;scheduler&#x27;: None, &#x27;interfaces&#x27;: None, &#x27;ssl_private_key&#x27;: &#x27;&#x27;, &#x27;gae&#x27;: None, &#x27;password&#x27;: &#x27;&lt;ask&gt;&#x27;, &#x27;request_queue_size&#x27;: 5, &#x27;ssl_certificate&#x27;: &#x27;&#x27;, &#x27;cronjob&#x27;: False, &#x27;numthreads&#x27;: None, &#x27;quiet&#x27;: False, &#x27;import_models&#x27;: False, &#x27;timeout&#x27;: 10, &#x27;plain&#x27;: False, &#x27;nobanner&#x27;: False}&gt;</div></td></tr><tr><td style="font-weight:bold;vertical-align:top;">db_sessions</td><td style="vertical-align:top;">:</td><td><div>set([])</div></td></tr><tr><td style="font-weight:bold;vertical-align:top;">debugging</td><td style="vertical-align:top;">:</td><td><div>True</div></td></tr><tr><td style="font-weight:bold;vertical-align:top;">gluon_parent</td><td style="vertical-align:top;">:</td><td><div>C:\\Users\\Jason\\Downloads\\web2py</div></td></tr><tr><td style="font-weight:bold;vertical-align:top;">http_accept</td><td style="vertical-align:top;">:</td><td><div>text/html,application/xhtml+xml,application/xml;q=0.9,image/webp,*/*;q=0.8</div></td></tr><tr><td style="font-weight:bold;vertical-align:top;">http_accept_encoding</td><td style="vertical-align:top;">:</td><td><div>gzip, deflate, sdch</div></td></tr><tr><td style="font-weight:bold;vertical-align:top;">http_accept_language</td><td style="vertical-align:top;">:</td><td><div>en-US,en;q=0.8</div></td></tr><tr><td style="font-weight:bold;vertical-align:top;">http_connection</td><td style="vertical-align:top;">:</td><td><div>keep-alive</div></td></tr><tr><td style="font-weight:bold;vertical-align:top;">http_cookie</td><td style="vertical-align:top;">:</td><td><div>session_id_hw21=127.0.0.1-c6701d6d-3194-4f2b-bd6c-31d002f55f58; session_id_homework_2=127.0.0.1-c8f1cb80-5f6f-4ae9-9820-484893fa04da; session_id_hw23=127.0.0.1-d06a198c-0768-4330-9065-1ba4b1b2071e; session_id_welcome=127.0.0.1-43619f45-f674-4e92-b9bc-2aef6fcd71d3; session_id_admin=127.0.0.1-4c5bfc7c-1d59-43d4-ad21-18065e6c5ead; session_id_p2p=127.0.0.1-83b6d8d5-5519-4fb9-a5b6-84b4f72519e7</div></td></tr><tr><td style="font-weight:bold;vertical-align:top;">http_host</td><td style="vertical-align:top;">:</td><td><div>127.0.0.1:8000</div></td></tr><tr><td style="font-weight:bold;vertical-align:top;">http_referer</td><td style="vertical-align:top;">:</td><td><div>http://127.0.0.1:8000/P2P/default/browse/0</div></td></tr><tr><td style="font-weight:bold;vertical-align:top;">http_upgrade_insecure_requests</td><td style="vertical-align:top;">:</td><td><div>1</div></td></tr><tr><td style="font-weight:bold;vertical-align:top;">http_user_agent</td><td style="vertical-align:top;">:</td><td><div>Mozilla/5.0 (Windows NT 6.1; WOW64) AppleWebKit/537.36 (KHTML, like Gecko) Chrome/48.0.2564.116 Safari/537.36</div></td></tr><tr><td style="font-weight:bold;vertical-align:top;">is_jython</td><td style="vertical-align:top;">:</td><td><div>False</div></td></tr><tr><td style="font-weight:bold;vertical-align:top;">is_pypy</td><td style="vertical-align:top;">:</td><td><div>False</div></td></tr><tr><td style="font-weight:bold;vertical-align:top;">is_source</td><td style="vertical-align:top;">:</td><td><div>True</div></td></tr><tr><td style="font-weight:bold;vertical-align:top;">local_hosts</td><td style="vertical-align:top;">:</td><td><div><table><tr><td><div>fe80::c4d9:80a7:6927:91dc%20</div></td></tr><tr><td><div>fe80::ad25:41ef:cc7a:b5f4%16</div></td></tr><tr><td><div>fe80::7910:6b7f:64e5:6055%24</div></td></tr><tr><td><div>::ffff:127.0.0.1</div></td></tr><tr><td><div>::1</div></td></tr><tr><td><div>192.168.1.7</div></td></tr><tr><td><div>fe80::80aa:bcc3:c776:b57a%23</div></td></tr><tr><td><div>Witidek</div></td></tr><tr><td><div>192.168.158.1</div></td></tr><tr><td><div>192.168.109.1</div></td></tr><tr><td><div>127.0.0.1</div></td></tr><tr><td><div>192.168.56.1</div></td></tr></table></div></td></tr><tr><td style="font-weight:bold;vertical-align:top;">path_info</td><td style="vertical-align:top;">:</td><td><div>/P2P/default/poem/63</div></td></tr><tr><td style="font-weight:bold;vertical-align:top;">query_string</td><td style="vertical-align:top;">:</td><td><div></div></td></tr><tr><td style="font-weight:bold;vertical-align:top;">remote_addr</td><td style="vertical-align:top;">:</td><td><div>127.0.0.1</div></td></tr><tr><td style="font-weight:bold;vertical-align:top;">remote_port</td><td style="vertical-align:top;">:</td><td><div>57508</div></td></tr><tr><td style="font-weight:bold;vertical-align:top;">request_method</td><td style="vertical-align:top;">:</td><td><div>GET</div></td></tr><tr><td style="font-weight:bold;vertical-align:top;">request_uri</td><td style="vertical-align:top;">:</td><td><div>/P2P/default/poem/63</div></td></tr><tr><td style="font-weight:bold;vertical-align:top;">script_name</td><td style="vertical-align:top;">:</td><td><div></div></td></tr><tr><td style="font-weight:bold;vertical-align:top;">server_name</td><td style="vertical-align:top;">:</td><td><div>Witidek</div></td></tr><tr><td style="font-weight:bold;vertical-align:top;">server_port</td><td style="vertical-align:top;">:</td><td><div>8000</div></td></tr><tr><td style="font-weight:bold;vertical-align:top;">server_protocol</td><td style="vertical-align:top;">:</td><td><div>HTTP/1.1</div></td></tr><tr><td style="font-weight:bold;vertical-align:top;">server_software</td><td style="vertical-align:top;">:</td><td><div>Rocket 1.2.6</div></td></tr><tr><td style="font-weight:bold;vertical-align:top;">web2py_path</td><td style="vertical-align:top;">:</td><td><div>C:\\Users\\Jason\\Downloads\\web2py</div></td></tr><tr><td style="font-weight:bold;vertical-align:top;">web2py_version</td><td style="vertical-align:top;">:</td><td><div>2.13.4-stable+timestamp.2015.12.26.04.59.39</div></td></tr><tr><td style="font-weight:bold;vertical-align:top;">wsgi.errors</td><td style="vertical-align:top;">:</td><td><div>&lt;open file &#x27;&lt;stderr&gt;&#x27;, mode &#x27;w&#x27; at 0x01CF50D0&gt;</div></td></tr><tr><td style="font-weight:bold;vertical-align:top;">wsgi.file_wrapper</td><td style="vertical-align:top;">:</td><td><div>&lt;class wsgiref.util.FileWrapper at 0x027CEDC0&gt;</div></td></tr><tr><td style="font-weight:bold;vertical-align:top;">wsgi.input</td><td style="vertical-align:top;">:</td><td><div>&lt;socket._fileobject object at 0x09576BB0&gt;</div></td></tr><tr><td style="font-weight:bold;vertical-align:top;">wsgi.multiprocess</td><td style="vertical-align:top;">:</td><td><div>False</div></td></tr><tr><td style="font-weight:bold;vertical-align:top;">wsgi.multithread</td><td style="vertical-align:top;">:</td><td><div>True</div></td></tr><tr><td style="font-weight:bold;vertical-align:top;">wsgi.run_once</td><td style="vertical-align:top;">:</td><td><div>False</div></td></tr><tr><td style="font-weight:bold;vertical-align:top;">wsgi.url_scheme</td><td style="vertical-align:top;">:</td><td><div>http</div></td></tr><tr><td style="font-weight:bold;vertical-align:top;">wsgi.version</td><td style="vertical-align:top;">:</td><td><div><table><tr><td><div>1</div></td></tr><tr><td><div>0</div></td></tr></table></div></td></tr><tr><td style="font-weight:bold;vertical-align:top;">wsgi_errors</td><td style="vertical-align:top;">:</td><td><div>&lt;open file &#x27;&lt;stderr&gt;&#x27;, mode &#x27;w&#x27; at 0x01CF50D0&gt;</div></td></tr><tr><td style="font-weight:bold;vertical-align:top;">wsgi_file_wrapper</td><td style="vertical-align:top;">:</td><td><div>&lt;class wsgiref.util.FileWrapper at 0x027CEDC0&gt;</div></td></tr><tr><td style="font-weight:bold;vertical-align:top;">wsgi_input</td><td style="vertical-align:top;">:</td><td><div>&lt;socket._fileobject object at 0x09576BB0&gt;</div></td></tr><tr><td style="font-weight:bold;vertical-align:top;">wsgi_multiprocess</td><td style="vertical-align:top;">:</td><td><div>False</div></td></tr><tr><td style="font-weight:bold;vertical-align:top;">wsgi_multithread</td><td style="vertical-align:top;">:</td><td><div>True</div></td></tr><tr><td style="font-weight:bold;vertical-align:top;">wsgi_run_once</td><td style="vertical-align:top;">:</td><td><div>False</div></td></tr><tr><td style="font-weight:bold;vertical-align:top;">wsgi_url_scheme</td><td style="vertical-align:top;">:</td><td><div>http</div></td></tr><tr><td style="font-weight:bold;vertical-align:top;">wsgi_version</td><td style="vertical-align:top;">:</td><td><div><table><tr><td><div>1</div></td></tr><tr><td><div>0</div></td></tr></table></div></td></tr></table></div></td></tr><tr><td style="font-weight:bold;vertical-align:top;">extension</td><td style="vertical-align:top;">:</td><td><div>html</div></td></tr><tr><td style="font-weight:bold;vertical-align:top;">folder</td><td style="vertical-align:top;">:</td><td><div>C:\\Users\\Jason\\Downloads\\web2py\\applications\\P2P\\</div></td></tr><tr><td style="font-weight:bold;vertical-align:top;">function</td><td style="vertical-align:top;">:</td><td><div>poem</div></td></tr><tr><td style="font-weight:bold;vertical-align:top;">global_settings</td><td style="vertical-align:top;">:</td><td><div><table><tr><td style="font-weight:bold;vertical-align:top;">app_folders</td><td style="vertical-align:top;">:</td><td><div>set([&#x27;C:\\\\Users\\\\Jason\\\\Downloads\\\\web2py\\\\applications\\\\welcome\\\\&#x27;, &#x27;C:\\\\Users\\\\Jason\\\\Downloads\\\\web2py\\\\applications\\\\admin\\\\&#x27;, &#x27;C:\\\\Users\\\\Jason\\\\Downloads\\\\web2py\\\\applications\\\\P2P\\\\&#x27;])</div></td></tr><tr><td style="font-weight:bold;vertical-align:top;">applications_parent</td><td style="vertical-align:top;">:</td><td><div>C:\\Users\\Jason\\Downloads\\web2py</div></td></tr><tr><td style="font-weight:bold;vertical-align:top;">cmd_args</td><td style="vertical-align:top;">:</td><td><div><table></table></div></td></tr><tr><td style="font-weight:bold;vertical-align:top;">cmd_options</td><td style="vertical-align:top;">:</td><td><div>&lt;Values at 0x34175d0: {&#x27;verbose&#x27;: False, &#x27;ip&#x27;: &#x27;127.0.0.1&#x27;, &#x27;debuglevel&#x27;: 30, &#x27;with_scheduler&#x27;: False, &#x27;ips&#x27;: [&#x27;fe80::c4d9:80a7:6927:91dc%20&#x27;, &#x27;fe80::ad25:41ef:cc7a:b5f4%16&#x27;, &#x27;fe80::7910:6b7f:64e5:6055%24&#x27;, &#x27;192.168.1.7&#x27;, &#x27;fe80::80aa:bcc3:c776:b57a%23&#x27;, &#x27;192.168.56.1&#x27;, &#x27;192.168.109.1&#x27;, &#x27;192.168.158.1&#x27;], &#x27;shutdown_timeout&#x27;: 5, &#x27;taskbar&#x27;: False, &#x27;with_coverage&#x27;: False, &#x27;scheduler_groups&#x27;: None, &#x27;port&#x27;: 8000, &#x27;maxthreads&#x27;: None, &#x27;softcron&#x27;: False, &#x27;server_name&#x27;: &#x27;Witidek&#x27;, &#x27;bpython&#x27;: False, &#x27;nogui&#x27;: False, &#x27;pid_filename&#x27;: &#x27;httpserver.pid&#x27;, &#x27;print_errors&#x27;: False, &#x27;extcron&#x27;: False, &#x27;runcron&#x27;: False, &#x27;run_system_tests&#x27;: False, &#x27;test&#x27;: None, &#x27;folder&#x27;: &#x27;C:\\\\Users\\\\Jason\\\\Downloads\\\\web2py&#x27;, &#x27;config&#x27;: &#x27;&#x27;, &#x27;minthreads&#x27;: None, &#x27;shell&#x27;: None, &#x27;run&#x27;: &#x27;&#x27;, &#x27;log_filename&#x27;: &#x27;httpserver.log&#x27;, &#x27;profiler_dir&#x27;: None, &#x27;args&#x27;: [&#x27;&#x27;], &#x27;socket_timeout&#x27;: 5, &#x27;ssl_ca_certificate&#x27;: None, &#x27;scheduler&#x27;: None, &#x27;interfaces&#x27;: None, &#x27;ssl_private_key&#x27;: &#x27;&#x27;, &#x27;gae&#x27;: None, &#x27;password&#x27;: &#x27;&lt;ask&gt;&#x27;, &#x27;request_queue_size&#x27;: 5, &#x27;ssl_certificate&#x27;: &#x27;&#x27;, &#x27;cronjob&#x27;: False, &#x27;numthreads&#x27;: None, &#x27;quiet&#x27;: False, &#x27;import_models&#x27;: False, &#x27;timeout&#x27;: 10, &#x27;plain&#x27;: False, &#x27;nobanner&#x27;: False}&gt;</div></td></tr><tr><td style="font-weight:bold;vertical-align:top;">db_sessions</td><td style="vertical-align:top;">:</td><td><div>set([])</div></td></tr><tr><td style="font-weight:bold;vertical-align:top;">debugging</td><td style="vertical-align:top;">:</td><td><div>True</div></td></tr><tr><td style="font-weight:bold;vertical-align:top;">gluon_parent</td><td style="vertical-align:top;">:</td><td><div>C:\\Users\\Jason\\Downloads\\web2py</div></td></tr><tr><td style="font-weight:bold;vertical-align:top;">is_jython</td><td style="vertical-align:top;">:</td><td><div>False</div></td></tr><tr><td style="font-weight:bold;vertical-align:top;">is_pypy</td><td style="vertical-align:top;">:</td><td><div>False</div></td></tr><tr><td style="font-weight:bold;vertical-align:top;">is_source</td><td style="vertical-align:top;">:</td><td><div>True</div></td></tr><tr><td style="font-weight:bold;vertical-align:top;">local_hosts</td><td style="vertical-align:top;">:</td><td><div><table><tr><td><div>fe80::c4d9:80a7:6927:91dc%20</div></td></tr><tr><td><div>fe80::ad25:41ef:cc7a:b5f4%16</div></td></tr><tr><td><div>fe80::7910:6b7f:64e5:6055%24</div></td></tr><tr><td><div>::ffff:127.0.0.1</div></td></tr><tr><td><div>::1</div></td></tr><tr><td><div>192.168.1.7</div></td></tr><tr><td><div>fe80::80aa:bcc3:c776:b57a%23</div></td></tr><tr><td><div>Witidek</div></td></tr><tr><td><div>192.168.158.1</div></td></tr><tr><td><div>192.168.109.1</div></td></tr><tr><td><div>127.0.0.1</div></td></tr><tr><td><div>192.168.56.1</div></td></tr></table></div></td></tr><tr><td style="font-weight:bold;vertical-align:top;">web2py_version</td><td style="vertical-align:top;">:</td><td><div>2.13.4-stable+timestamp.2015.12.26.04.59.39</div></td></tr></table></div></td></tr><tr><td style="font-weight:bold;vertical-align:top;">is_https</td><td style="vertical-align:top;">:</td><td><div>False</div></td></tr><tr><td style="font-weight:bold;vertical-align:top;">is_local</td><td style="vertical-align:top;">:</td><td><div>True</div></td></tr><tr><td style="font-weight:bold;vertical-align:top;">is_restful</td><td style="vertical-align:top;">:</td><td><div>False</div></td></tr><tr><td style="font-weight:bold;vertical-align:top;">is_scheduler</td><td style="vertical-align:top;">:</td><td><div>False</div></td></tr><tr><td style="font-weight:bold;vertical-align:top;">is_shell</td><td style="vertical-align:top;">:</td><td><div>False</div></td></tr><tr><td style="font-weight:bold;vertical-align:top;">now</td><td style="vertical-align:top;">:</td><td><div>datetime.datetime(2016, 3, 16, 5, 30, 16, 433000)</div></td></tr><tr><td style="font-weight:bold;vertical-align:top;">raw_args</td><td style="vertical-align:top;">:</td><td><div>63</div></td></tr><tr><td style="font-weight:bold;vertical-align:top;">raw_extension</td><td style="vertical-align:top;">:</td><td><div>None</div></td></tr><tr><td style="font-weight:bold;vertical-align:top;">url</td><td style="vertical-align:top;">:</td><td><div>/P2P/default/poem/63</div></td></tr><tr><td style="font-weight:bold;vertical-align:top;">utcnow</td><td style="vertical-align:top;">:</td><td><div>datetime.datetime(2016, 3, 16, 12, 30, 16, 433000)</div></td></tr><tr><td style="font-weight:bold;vertical-align:top;">wsgi</td><td style="vertical-align:top;">:</td><td><div>&lt;gluon.main.LazyWSGI object at 0x09FBC430&gt;</div></td></tr></table></div>'
tRp58
sS'frames'
p59
(lp60
(dp61
S'file'
p62
S'C:\\Users\\Jason\\Downloads\\web2py\\gluon\\restricted.py'
p63
sS'dump'
p64
(dp65
S'environment'
p66
S"{'A': <class 'gluon.html.A'>, 'ANY_OF': <class 'gluon.validators.ANY_OF'>, 'ASSIGNJS': <function ASSIGNJS>, 'AppConfig': <function AppConfig>, 'Auth': <class 'gluon.tools.Auth'>, 'B': <class 'gluon.html.B'>, 'BEAUTIFY': <class 'gluon.html.BEAUTIFY'>, 'BODY': <class 'gluon.html.BODY'>, 'BR': <class 'gluon.html.BR'>, 'BUTTON': <class 'gluon.html.BUTTON'>, ...}"
p67
sS'ccode'
p68
S'<code object <module> at 037E5188, file "C:\\User...pplications\\P2P\\views\\default/poem.html", line 1>'
p69
ssS'lnum'
p70
I227
sS'lines'
p71
(dp72
I224
S'            ccode = code'
p73
sI225
S'        else:'
p74
sI226
S'            ccode = compile2(code, layer)'
p75
sI227
S'        exec ccode in environment'
p76
sI228
S'    except HTTP:'
p77
sI229
S'        raise'
p78
sI230
S'    except RestrictedError:'
p79
sI231
S'        # do not encapsulate (obfuscate) the original RestrictedError'
p80
sI222
S'    try:'
p81
sI223
S'        if isinstance(code, types.CodeType):'
p82
ssS'call'
p83
S'(code=r"response.write(\'<!DOCTYPE html>\\r\\n\\r\\n\\r\\n<!--[...ript>\\r\\n  </body>\\r\\n</html>\\r\\n\', escape=False)", environment={\'A\': <class \'gluon.html.A\'>, \'ANY_OF\': <class \'gluon.validators.ANY_OF\'>, \'ASSIGNJS\': <function ASSIGNJS>, \'AppConfig\': <function AppConfig>, \'Auth\': <class \'gluon.tools.Auth\'>, \'B\': <class \'gluon.html.B\'>, \'BEAUTIFY\': <class \'gluon.html.BEAUTIFY\'>, \'BODY\': <class \'gluon.html.BODY\'>, \'BR\': <class \'gluon.html.BR\'>, \'BUTTON\': <class \'gluon.html.BUTTON\'>, ...}, layer=r\'C:\\Users\\Jason\\Downloads\\web2py\\applications\\P2P\\views\\default/poem.html\')'
p84
sS'func'
p85
S'restricted'
p86
sa(dp87
g62
S'C:\\Users\\Jason\\Downloads\\web2py\\applications\\P2P\\views\\default\\poem.html'
p88
sg64
(dp89
sg70
I325
sg71
(dp90
I320
S'        pass'
p91
sI321
S'    pass'
p92
sI322
S'response.write(\'\\r\\n</h4>\\r\\n\\r\\n\\r\\n</br>\\r\\n</br>\\r\\n<h4>Poem Description: </h4>\\r\\n<div style="width:500px;overflow:auto"><p>\', escape=False)'
p93
sI323
S'response.write(poem.description)'
p94
sI324
S"response.write('</p></div>\\r\\n\\r\\n', escape=False)"
p95
sI325
S"if (poem.category == '16 line ABAB rhyme' and 16 > abab.line_count) or (poem.category == '16 line AABB rhyme'and 16 > abab.line_count) or (poem.category == 'Sonnet' and 14 > abab.line_count) or (poem.category == 'Limerick' and 5 > abab.line_count) or (poem.category == 'AAAA' and 8 > abab.line_count) or (poem.category == 'Acrostic' and len(list(acrostic.word)) > acrostic.line_count) :"
p96
sI326
S'    response.write(\'\\r\\n<input type=button style = "position:relative;" onClick="location.href=\\\'\', escape=False)'
p97
sI327
S"    response.write(URL('add_check',args=poem.id))"
p98
sI328
S'    response.write(\'\\\'" value =\\\'Add line to poem\\\'>\\r\\n\', escape=False)'
p99
sI329
S'    pass'
p100
sI330
S"response.write('\\r\\n', escape=False)"
p101
sI331
S'if (poem.category == \'Haiku\' and 17 > haiku.syllable_count) or (poem.category == "10 line Syllabic Verse" and 55 > haiku.syllable_count):'
p102
sI332
S'    response.write(\'\\r\\n<input type=button style = "position:relative;" onClick="location.href=\\\'\', escape=False)'
p103
sI333
S"    response.write(URL('add_check',args=poem.id))"
p104
sI334
S'    response.write(\'\\\'" value =\\\'Add word to poem\\\'>\\r\\n\', escape=False)'
p105
sI335
S'    pass'
p106
sI316
S'if contributors:'
p107
sI317
S'    for person in contributors:'
p108
sI318
S'        response.write(db.auth_user(person.author).username)'
p109
sI319
S"        response.write(' ', escape=False)"
p110
ssg83
S'()'
p111
sg85
S'<module>'
p112
sasS'pyver'
p113
S'Python 2.7: C:\\Python27\\python.exe (prefix: C:\\Python27)'
p114
sS'session'
p115
g57
(S's\x12\x0b\x00\x00<div><table><tr><td style="font-weight:bold;vertical-align:top;">allow_add</td><td style="vertical-align:top;">:</td><td><div>73</div></td></tr><tr><td style="font-weight:bold;vertical-align:top;">auth</td><td style="vertical-align:top;">:</td><td><div><table><tr><td style="font-weight:bold;vertical-align:top;">expiration</td><td style="vertical-align:top;">:</td><td><div>3600</div></td></tr><tr><td style="font-weight:bold;vertical-align:top;">hmac_key</td><td style="vertical-align:top;">:</td><td><div>130394a6-a5ae-4ab2-b190-984c45e44d6b</div></td></tr><tr><td style="font-weight:bold;vertical-align:top;">last_visit</td><td style="vertical-align:top;">:</td><td><div>datetime.datetime(2016, 3, 16, 5, 27, 33, 27000)</div></td></tr><tr><td style="font-weight:bold;vertical-align:top;">remember_me</td><td style="vertical-align:top;">:</td><td><div>False</div></td></tr><tr><td style="font-weight:bold;vertical-align:top;">user</td><td style="vertical-align:top;">:</td><td><div><table><tr><td style="font-weight:bold;vertical-align:top;">email</td><td style="vertical-align:top;">:</td><td><div>default@email.com</div></td></tr><tr><td style="font-weight:bold;vertical-align:top;">first_name</td><td style="vertical-align:top;">:</td><td><div>default</div></td></tr><tr><td style="font-weight:bold;vertical-align:top;">id</td><td style="vertical-align:top;">:</td><td><div>4L</div></td></tr><tr><td style="font-weight:bold;vertical-align:top;">last_name</td><td style="vertical-align:top;">:</td><td><div>default</div></td></tr><tr><td style="font-weight:bold;vertical-align:top;">registration_id</td><td style="vertical-align:top;">:</td><td><div></div></td></tr><tr><td style="font-weight:bold;vertical-align:top;">registration_key</td><td style="vertical-align:top;">:</td><td><div></div></td></tr><tr><td style="font-weight:bold;vertical-align:top;">reset_password_key</td><td style="vertical-align:top;">:</td><td><div></div></td></tr><tr><td style="font-weight:bold;vertical-align:top;">username</td><td style="vertical-align:top;">:</td><td><div>default</div></td></tr></table></div></td></tr><tr><td style="font-weight:bold;vertical-align:top;">user_groups</td><td style="vertical-align:top;">:</td><td><div><table><tr><td style="font-weight:bold;vertical-align:top;">4</td><td style="vertical-align:top;">:</td><td><div>user_4</div></td></tr></table></div></td></tr></table></div></td></tr><tr><td style="font-weight:bold;vertical-align:top;">flash</td><td style="vertical-align:top;">:</td><td><div>None</div></td></tr><tr><td style="font-weight:bold;vertical-align:top;">last_orderby</td><td style="vertical-align:top;">:</td><td><div>None</div></td></tr><tr><td style="font-weight:bold;vertical-align:top;">last_query</td><td style="vertical-align:top;">:</td><td><div>db.mutex.id&gt;0</div></td></tr></table></div>'
tRp116
sS'etype'
p117
S"<type 'exceptions.TypeError'>"
p118
sS'date'
p119
S'Wed Mar 16 05:30:16 2016'
p120
sS'response'
p121
g57
(S's\xd1 \x00\x00<div><table><tr><td style="font-weight:bold;vertical-align:top;">body</td><td style="vertical-align:top;">:</td><td><div>&lt;cStringIO.StringO object at 0x095AE3A0&gt;</div></td></tr><tr><td style="font-weight:bold;vertical-align:top;">cookies</td><td style="vertical-align:top;">:</td><td><div><table><tr><td style="font-weight:bold;vertical-align:top;">session_id_p2p</td><td style="vertical-align:top;">:</td><td><div>127.0.0.1-83b6d8d5-5519-4fb9-a5b6-84b4f72519e7<table><tr><td style="font-weight:bold;vertical-align:top;">comment</td><td style="vertical-align:top;">:</td><td><div></div></td></tr><tr><td style="font-weight:bold;vertical-align:top;">domain</td><td style="vertical-align:top;">:</td><td><div></div></td></tr><tr><td style="font-weight:bold;vertical-align:top;">expires</td><td style="vertical-align:top;">:</td><td><div></div></td></tr><tr><td style="font-weight:bold;vertical-align:top;">httponly</td><td style="vertical-align:top;">:</td><td><div></div></td></tr><tr><td style="font-weight:bold;vertical-align:top;">max-age</td><td style="vertical-align:top;">:</td><td><div></div></td></tr><tr><td style="font-weight:bold;vertical-align:top;">path</td><td style="vertical-align:top;">:</td><td><div>/</div></td></tr><tr><td style="font-weight:bold;vertical-align:top;">secure</td><td style="vertical-align:top;">:</td><td><div></div></td></tr><tr><td style="font-weight:bold;vertical-align:top;">version</td><td style="vertical-align:top;">:</td><td><div></div></td></tr></table></div></td></tr></table></div></td></tr><tr><td style="font-weight:bold;vertical-align:top;">delimiters</td><td style="vertical-align:top;">:</td><td><div><table><tr><td><div>{{</div></td></tr><tr><td><div>}}</div></td></tr></table></div></td></tr><tr><td style="font-weight:bold;vertical-align:top;">files</td><td style="vertical-align:top;">:</td><td><div><table><tr><td><div>/P2P/static/js/jquery.js</div></td></tr><tr><td><div>/P2P/static/css/calendar.css</div></td></tr><tr><td><div>/P2P/static/js/calendar.js</div></td></tr><tr><td><div>/P2P/static/js/web2py.js</div></td></tr></table></div></td></tr><tr><td style="font-weight:bold;vertical-align:top;">flash</td><td style="vertical-align:top;">:</td><td><div></div></td></tr><tr><td style="font-weight:bold;vertical-align:top;">form_label_separator</td><td style="vertical-align:top;">:</td><td><div></div></td></tr><tr><td style="font-weight:bold;vertical-align:top;">formstyle</td><td style="vertical-align:top;">:</td><td><div>bootstrap3_inline</div></td></tr><tr><td style="font-weight:bold;vertical-align:top;">generic_patterns</td><td style="vertical-align:top;">:</td><td><div><table><tr><td><div>*</div></td></tr></table></div></td></tr><tr><td style="font-weight:bold;vertical-align:top;">google_analytics_id</td><td style="vertical-align:top;">:</td><td><div>None</div></td></tr><tr><td style="font-weight:bold;vertical-align:top;">headers</td><td style="vertical-align:top;">:</td><td><div><table><tr><td style="font-weight:bold;vertical-align:top;">X-Powered-By</td><td style="vertical-align:top;">:</td><td><div>web2py</div></td></tr></table></div></td></tr><tr><td style="font-weight:bold;vertical-align:top;">logo</td><td style="vertical-align:top;">:</td><td><div><a class="navbar-brand" id="web2py-logo"><b><span>P</span><span>2</span><span>P</span></b></a></div></td></tr><tr><td style="font-weight:bold;vertical-align:top;">menu</td><td style="vertical-align:top;">:</td><td><div><table><tr><td><div><table><tr><td><div>Home</div></td></tr><tr><td><div>False</div></td></tr><tr><td><div>/P2P/default/index</div></td></tr><tr><td><div><table></table></div></td></tr></table></div></td></tr><tr><td><div><table><tr><td><div>Browse Poems</div></td></tr><tr><td><div>False</div></td></tr><tr><td><div>/P2P/default/browse</div></td></tr><tr><td><div><table></table></div></td></tr></table></div></td></tr><tr><td><div><table><tr><td><div>Search Poems</div></td></tr><tr><td><div>False</div></td></tr><tr><td><div>/P2P/default/search</div></td></tr><tr><td><div><table></table></div></td></tr></table></div></td></tr><tr><td><div><table><tr><td><div>Profile</div></td></tr><tr><td><div>False</div></td></tr><tr><td><div>/P2P/default/profile</div></td></tr><tr><td><div><table></table></div></td></tr></table></div></td></tr></table></div></td></tr><tr><td style="font-weight:bold;vertical-align:top;">meta</td><td style="vertical-align:top;">:</td><td><div><table><tr><td style="font-weight:bold;vertical-align:top;">author</td><td style="vertical-align:top;">:</td><td><div>Your Name &lt;you@example.com&gt;</div></td></tr><tr><td style="font-weight:bold;vertical-align:top;">description</td><td style="vertical-align:top;">:</td><td><div>a cool new app</div></td></tr><tr><td style="font-weight:bold;vertical-align:top;">generator</td><td style="vertical-align:top;">:</td><td><div>Web2py Web Framework</div></td></tr><tr><td style="font-weight:bold;vertical-align:top;">keywords</td><td style="vertical-align:top;">:</td><td><div>web2py, python, framework</div></td></tr></table></div></td></tr><tr><td style="font-weight:bold;vertical-align:top;">models_to_run</td><td style="vertical-align:top;">:</td><td><div><table><tr><td><div>^\\w+\\.py$</div></td></tr><tr><td><div>^default/\\w+\\.py$</div></td></tr><tr><td><div>^default/poem/\\w+\\.py$</div></td></tr></table></div></td></tr><tr><td style="font-weight:bold;vertical-align:top;">postprocessing</td><td style="vertical-align:top;">:</td><td><div><table></table></div></td></tr><tr><td style="font-weight:bold;vertical-align:top;">session_client</td><td style="vertical-align:top;">:</td><td><div>127.0.0.1</div></td></tr><tr><td style="font-weight:bold;vertical-align:top;">session_cookie_compression_level</td><td style="vertical-align:top;">:</td><td><div>None</div></td></tr><tr><td style="font-weight:bold;vertical-align:top;">session_cookie_expires</td><td style="vertical-align:top;">:</td><td><div>None</div></td></tr><tr><td style="font-weight:bold;vertical-align:top;">session_cookie_key</td><td style="vertical-align:top;">:</td><td><div>None</div></td></tr><tr><td style="font-weight:bold;vertical-align:top;">session_data_name</td><td style="vertical-align:top;">:</td><td><div>session_data_p2p</div></td></tr><tr><td style="font-weight:bold;vertical-align:top;">session_file</td><td style="vertical-align:top;">:</td><td><div>&lt;open file &#x27;C:\\Users\\Jason\\Downloads\\web2py\\applications\\P2P\\sessions\\0e0\\01d\\127.0.0.1-83b6d8d5-5519-4fb9-a5b6-84b4f72519e7&#x27;, mode &#x27;rb+&#x27; at 0x095A5EE8&gt;</div></td></tr><tr><td style="font-weight:bold;vertical-align:top;">session_filename</td><td style="vertical-align:top;">:</td><td><div>C:\\Users\\Jason\\Downloads\\web2py\\applications\\P2P\\sessions\\127.0.0.1-83b6d8d5-5519-4fb9-a5b6-84b4f72519e7</div></td></tr><tr><td style="font-weight:bold;vertical-align:top;">session_hash</td><td style="vertical-align:top;">:</td><td><div>77443966c25ad0087ad7402e03edc08a</div></td></tr><tr><td style="font-weight:bold;vertical-align:top;">session_id</td><td style="vertical-align:top;">:</td><td><div>127.0.0.1-83b6d8d5-5519-4fb9-a5b6-84b4f72519e7</div></td></tr><tr><td style="font-weight:bold;vertical-align:top;">session_id_name</td><td style="vertical-align:top;">:</td><td><div>session_id_p2p</div></td></tr><tr><td style="font-weight:bold;vertical-align:top;">session_locked</td><td style="vertical-align:top;">:</td><td><div>True</div></td></tr><tr><td style="font-weight:bold;vertical-align:top;">session_masterapp</td><td style="vertical-align:top;">:</td><td><div>P2P</div></td></tr><tr><td style="font-weight:bold;vertical-align:top;">session_new</td><td style="vertical-align:top;">:</td><td><div>False</div></td></tr><tr><td style="font-weight:bold;vertical-align:top;">session_storage_type</td><td style="vertical-align:top;">:</td><td><div>file</div></td></tr><tr><td style="font-weight:bold;vertical-align:top;">status</td><td style="vertical-align:top;">:</td><td><div>200</div></td></tr><tr><td style="font-weight:bold;vertical-align:top;">subtitle</td><td style="vertical-align:top;">:</td><td><div></div></td></tr><tr><td style="font-weight:bold;vertical-align:top;">title</td><td style="vertical-align:top;">:</td><td><div>P2P</div></td></tr><tr><td style="font-weight:bold;vertical-align:top;">view</td><td style="vertical-align:top;">:</td><td><div>default/poem.html</div></td></tr></table></div>'
tRp122
sS'locals'
p123
(dp124
S'rating'
p125
S'<Rows (0)>'
p126
sS'Service'
p127
S"<class 'gluon.tools.Service'>"
p128
sS'OBJECT'
p129
S"<class 'gluon.html.OBJECT'>"
p130
sS'SQLDB'
p131
S"<class 'pydal.base.DAL'>"
p132
sg115
S"<Storage {'last_query': 'db.mutex.id>0', '_formk...gin]': ['2c1fea4d-d1ef-47f1-9ca5-3ed7f51b8779']}>"
p133
sS'LINK'
p134
S"<class 'gluon.html.LINK'>"
p135
sS'BR'
p136
S"<class 'gluon.html.BR'>"
p137
sS'local_import'
p138
S'<function <lambda>>'
p139
sS'OPTGROUP'
p140
S"<class 'gluon.html.OPTGROUP'>"
p141
sS'__package__'
p142
S'None'
p143
sS'PRE'
p144
S"<class 'gluon.html.PRE'>"
p145
sS'IS_INT_IN_RANGE'
p146
S"<class 'gluon.validators.IS_INT_IN_RANGE'>"
p147
sS'left_sidebar_enabled'
p148
S'False'
p149
sS'IS_LOWER'
p150
S"<class 'gluon.validators.IS_LOWER'>"
p151
sS'IS_STRONG'
p152
S"<class 'gluon.validators.IS_STRONG'>"
p153
sS'cache'
p154
S'<gluon.cache.Cache object>'
p155
sS'IS_IN_DB'
p156
S"<class 'gluon.validators.IS_IN_DB'>"
p157
sS'forms'
p158
S'<gluon.html.FORM object>'
p159
sS'TAG'
p160
S'<gluon.html.__TAG__ object>'
p161
sS'SQLField'
p162
S"<class 'pydal.objects.Field'>"
p163
sS'mail'
p164
S'<gluon.tools.Mail object>'
p165
sS'BODY'
p166
S"<class 'gluon.html.BODY'>"
p167
sS'IS_DATE_IN_RANGE'
p168
S"<class 'gluon.validators.IS_DATE_IN_RANGE'>"
p169
sS'votedInteresting'
p170
g149
sS'IFRAME'
p171
S"<class 'gluon.html.IFRAME'>"
p172
sS'URL'
p173
S'<function URL>'
p174
sS'__file__'
p175
S"r'C:\\Users\\Jason\\Downloads\\web2py\\applications\\P2P\\views\\default/poem.html'"
p176
sS'db'
p177
S'<DAL uri="sqlite://storage.sqlite">'
p178
sS'auth'
p179
S'<gluon.tools.Auth object>'
p180
sS'P'
S"<class 'gluon.html.P'>"
p181
sS'TFOOT'
p182
S"<class 'gluon.html.TFOOT'>"
p183
sS'XHTML'
p184
S"<class 'gluon.html.XHTML'>"
p185
sS'votedFunny'
p186
g149
sS'ON'
p187
S'True'
p188
sS'OL'
p189
S"<class 'gluon.html.OL'>"
p190
sS'TEXTAREA'
p191
S"<class 'gluon.html.TEXTAREA'>"
p192
sS'MENU'
p193
S"<class 'gluon.html.MENU'>"
p194
sS'IS_IMAGE'
p195
S"<class 'gluon.validators.IS_IMAGE'>"
p196
sS'EM'
p197
S"<class 'gluon.html.EM'>"
p198
sS'CODE'
p199
S"<class 'gluon.html.CODE'>"
p200
sS'HTTP'
p201
S"<class 'gluon.http.HTTP'>"
p202
sS'HR'
p203
S"<class 'gluon.html.HR'>"
p204
sS'IS_DATETIME'
p205
S"<class 'gluon.validators.IS_DATETIME'>"
p206
sS'STYLE'
p207
S"<class 'gluon.html.STYLE'>"
p208
sS'LABEL'
p209
S"<class 'gluon.html.LABEL'>"
p210
sS'CLEANUP'
p211
S"<class 'gluon.validators.CLEANUP'>"
p212
sS'plugins'
p213
S'<gluon.tools.PluginManager object>'
p214
sS'SELECT'
p215
S"<class 'gluon.html.SELECT'>"
p216
sS'voteInteresting'
p217
S'0'
sS'CENTER'
p218
S"<class 'gluon.html.CENTER'>"
p219
sS'Auth'
p220
S"<class 'gluon.tools.Auth'>"
p221
sS'DEVELOPMENT_MENU'
p222
g149
sS'__builtins__'
p223
S"{'ArithmeticError': <type 'exceptions.ArithmeticError'>, 'AssertionError': <type 'exceptions.AssertionError'>, 'AttributeError': <type 'exceptions.AttributeError'>, 'BaseException': <type 'exceptions.BaseException'>, 'BufferError': <type 'exceptions.BufferError'>, 'BytesWarning': <type 'exceptions.BytesWarning'>, 'DeprecationWarning': <type 'exceptions.DeprecationWarning'>, 'EOFError': <type 'exceptions.EOFError'>, 'Ellipsis': Ellipsis, 'EnvironmentError': <type 'exceptions.EnvironmentError'>, ...}"
p224
sS'HTML'
p225
S"<class 'gluon.html.HTML'>"
p226
sS'SQLFORM'
p227
S"<class 'gluon.sqlhtml.SQLFORM'>"
p228
sS'LOAD'
p229
S'<function LOAD>'
p230
sS'redirect'
p231
S'<function redirect>'
p232
sS'FIELDSET'
p233
S"<class 'gluon.html.FIELDSET'>"
p234
sS'IS_EQUAL_TO'
p235
S"<class 'gluon.validators.IS_EQUAL_TO'>"
p236
sS'embed64'
p237
S'<function embed64>'
p238
sS'IS_LIST_OF'
p239
S"<class 'gluon.validators.IS_LIST_OF'>"
p240
sS'INPUT'
p241
S"<class 'gluon.html.INPUT'>"
p242
sS'EMBED'
p243
S"<class 'gluon.html.EMBED'>"
p244
sS'_'
S'<function _>'
p245
sS'myconf'
p246
S"{'forms': {'formstyle': 'bootstrap3_inline', 'se...'you@gmail.com', 'server': 'smtp.gmail.com:587'}}"
p247
sS'H2'
p248
S"<class 'gluon.html.H2'>"
p249
sS'H3'
p250
S"<class 'gluon.html.H3'>"
p251
sS'AppConfig'
p252
S'<function AppConfig>'
p253
sS'H1'
p254
S"<class 'gluon.html.H1'>"
p255
sS'H6'
p256
S"<class 'gluon.html.H6'>"
p257
sS'H4'
p258
S"<class 'gluon.html.H4'>"
p259
sS'H5'
p260
S"<class 'gluon.html.H5'>"
p261
sS'UL'
p262
S"<class 'gluon.html.UL'>"
p263
sS'IS_UPPER'
p264
S"<class 'gluon.validators.IS_UPPER'>"
p265
sS'xmlescape'
p266
S'<function xmlescape>'
p267
sS'IS_TIME'
p268
S"<class 'gluon.validators.IS_TIME'>"
p269
sS'OPTION'
p270
S"<class 'gluon.html.OPTION'>"
p271
sS'TITLE'
p272
S"<class 'gluon.html.TITLE'>"
p273
sS'CRYPT'
p274
S"<class 'gluon.validators.CRYPT'>"
p275
sS'IS_EMPTY_OR'
p276
S"<class 'gluon.validators.IS_EMPTY_OR'>"
p277
sS'MARKMIN'
p278
S"<class 'gluon.html.MARKMIN'>"
p279
sS'__name__'
p280
S"'__restricted__'"
p281
sS'STRONG'
p282
S"<class 'gluon.html.STRONG'>"
p283
sS'COL'
p284
S"<class 'gluon.html.COL'>"
p285
sS'mc1'
p286
S"'col-md-9'"
p287
sS'mc0'
p288
S"'col-md-12'"
p289
sS'poem'
p290
S"<Row {'abab': <Set (abab.poem_id = 63)>, 'rating...osted': datetime.datetime(2016, 3, 1, 3, 14, 4)}>"
p291
sS'service'
p292
S'<gluon.tools.Service object>'
p293
sS'SCRIPT'
p294
S"<class 'gluon.html.SCRIPT'>"
p295
sS'TABLE'
p296
S"<class 'gluon.html.TABLE'>"
p297
sS'acrostic'
p298
S"<Row {'word': None, 'poem_id': 63L, 'line_count': 2L, 'id': 1L}>"
p299
sS'IS_IPV4'
p300
S"<class 'gluon.validators.IS_IPV4'>"
p301
sS'IS_LENGTH'
p302
S"<class 'gluon.validators.IS_LENGTH'>"
p303
sS'IS_IPV6'
p304
S"<class 'gluon.validators.IS_IPV6'>"
p305
sS'XML'
p306
S"<class 'gluon.html.XML'>"
p307
sS'B'
S"<class 'gluon.html.B'>"
p308
sS'IMG'
p309
S"<class 'gluon.html.IMG'>"
p310
sS'SQLTABLE'
p311
S"<class 'gluon.sqlhtml.SQLTABLE'>"
p312
sS'IS_MATCH'
p313
S"<class 'gluon.validators.IS_MATCH'>"
p314
sS'IS_ALPHANUMERIC'
p315
S"<class 'gluon.validators.IS_ALPHANUMERIC'>"
p316
sS'votedCool'
p317
g149
sS'SPAN'
p318
S"<class 'gluon.html.SPAN'>"
p319
sS'IS_JSON'
p320
S"<class 'gluon.validators.IS_JSON'>"
p321
sS'IS_IPADDRESS'
p322
S"<class 'gluon.validators.IS_IPADDRESS'>"
p323
sS'IS_SLUG'
p324
S"<class 'gluon.validators.IS_SLUG'>"
p325
sS'BEAUTIFY'
p326
S"<class 'gluon.html.BEAUTIFY'>"
p327
sS'META'
p328
S"<class 'gluon.html.META'>"
p329
sS'BUTTON'
p330
S"<class 'gluon.html.BUTTON'>"
p331
sS'IS_DATE'
p332
S"<class 'gluon.validators.IS_DATE'>"
p333
sS'IS_EMAIL'
p334
S"<class 'gluon.validators.IS_EMAIL'>"
p335
sS'contributors'
p336
S'<Rows (0)>'
p337
sS'middle_column'
p338
S"'col-md-12'"
p339
sS'IS_NOT_EMPTY'
p340
S"<class 'gluon.validators.IS_NOT_EMPTY'>"
p341
sg56
S"<Storage {'_vars': None, 'function': 'poem', 'co...\\Jason\\\\Downloads\\\\web2py\\\\applications\\\\P2P\\\\'}>"
p342
sS'TBODY'
p343
S"<class 'gluon.html.TBODY'>"
p344
sS'CAT'
p345
S"<class 'gluon.html.CAT'>"
p346
sS'Field'
p347
S"<class 'pydal.objects.Field'>"
p348
sS'mc2'
p349
S"'col-md-6'"
p350
sS'IS_LIST_OF_EMAILS'
p351
S"<class 'gluon.validators.IS_LIST_OF_EMAILS'>"
p352
sS'DIV'
p353
S"<class 'gluon.html.DIV'>"
p354
sS'LEGEND'
p355
S"<class 'gluon.html.LEGEND'>"
p356
sS'COLGROUP'
p357
S"<class 'gluon.html.COLGROUP'>"
p358
sS'DAL'
p359
S"<class 'pydal.base.DAL'>"
p360
sS'ASSIGNJS'
p361
S'<function ASSIGNJS>'
p362
sS'TR'
p363
S"<class 'gluon.html.TR'>"
p364
sS'LI'
p365
S"<class 'gluon.html.LI'>"
p366
sS'right_sidebar_enabled'
p367
g149
sS'TH'
p368
S"<class 'gluon.html.TH'>"
p369
sS'TD'
p370
S"<class 'gluon.html.TD'>"
p371
sS'PluginManager'
p372
S"<class 'gluon.tools.PluginManager'>"
p373
sS'IS_URL'
p374
S"<class 'gluon.validators.IS_URL'>"
p375
sS'A'
S"<class 'gluon.html.A'>"
p376
sS'HEAD'
p377
S"<class 'gluon.html.HEAD'>"
p378
sS'IS_DATETIME_IN_RANGE'
p379
S"<class 'gluon.validators.IS_DATETIME_IN_RANGE'>"
p380
sS'FORM'
p381
S"<class 'gluon.html.FORM'>"
p382
sS'I'
S"<class 'gluon.html.I'>"
p383
sS'IS_NOT_IN_DB'
p384
S"<class 'gluon.validators.IS_NOT_IN_DB'>"
p385
sS'voteCool'
p386
S'0'
sg121
S"<Storage {'body': <cStringIO.StringO object at 0...da> at 0x0A1F8B30>, 'view': 'default/poem.html'}>"
p387
sS'THEAD'
p388
S"<class 'gluon.html.THEAD'>"
p389
sS'ANY_OF'
p390
S"<class 'gluon.validators.ANY_OF'>"
p391
sS'voteFunny'
p392
S'0'
sS'IS_NULL_OR'
p393
S"<class 'gluon.validators.IS_EMPTY_OR'>"
p394
sS'IS_FLOAT_IN_RANGE'
p395
S"<class 'gluon.validators.IS_FLOAT_IN_RANGE'>"
p396
sg71
S'<Rows (0)>'
p397
sS'IS_EXPR'
p398
S"<class 'gluon.validators.IS_EXPR'>"
p399
sS'T'
S'<gluon.languages.translator object>'
p400
sS'IS_IN_SET'
p401
S"<class 'gluon.validators.IS_IN_SET'>"
p402
sS'IS_UPLOAD_FILENAME'
p403
S"<class 'gluon.validators.IS_UPLOAD_FILENAME'>"
p404
sS'TT'
p405
S"<class 'gluon.html.TT'>"
p406
sS'IS_DECIMAL_IN_RANGE'
p407
S"<class 'gluon.validators.IS_DECIMAL_IN_RANGE'>"
p408
sssS'traceback'
p409
S'Traceback (most recent call last):\n  File "C:\\Users\\Jason\\Downloads\\web2py\\gluon\\restricted.py", line 227, in restricted\n    exec ccode in environment\n  File "C:\\Users\\Jason\\Downloads\\web2py\\applications\\P2P\\views\\default/poem.html", line 325, in <module>\nTypeError: \'NoneType\' object is not iterable\n'
p410
s.