(dp1
S'output'
p2
S"<type 'exceptions.AttributeError'> 'str' object has no attribute 'capitialize'"
p3
sS'layer'
p4
S'C:\\Users\\Kevin\\Desktop\\web2py\\applications\\P2P\\views\\default/poem.html'
p5
sS'code'
p6
S'response.write(\'<!DOCTYPE html>\\r\\n\\r\\n\\r\\n<!--[if (gt IE 9)|!(IE)]><!--> <html class="no-js" lang="\', escape=False)\nresponse.write(T.accepted_language or \'en\')\nresponse.write(\'"> <!--<![endif]-->\\r\\n  <head>\\r\\n    <meta charset="utf-8">\\r\\n    <!-- www.phpied.com/conditional-comments-block-downloads/ -->\\r\\n    <!-- Always force latest IE rendering engine\\r\\n         (even in intranet) & Chrome Frame\\r\\n         Remove this if you use the .htaccess -->\\r\\n    <meta http-equiv="X-UA-Compatible" content="IE=edge\', escape=False)\nresponse.write(not request.is_local and \',chrome=1\' or \'\')\nresponse.write(\'">\\r\\n    <!--  Mobile Viewport Fix\\r\\n          j.mp/mobileviewport & davidbcalhoun.com/2010/viewport-metatag\\r\\n          device-width: Occupy full width of the screen in its current orientation\\r\\n          initial-scale = 1.0 retains dimensions instead of zooming out if page height > device height\\r\\n          user-scalable = yes allows the user to zoom in -->\\r\\n    <meta name="viewport" content="width=device-width, initial-scale=1.0">\\r\\n    <title>\', escape=False)\nresponse.write(response.title or request.application)\nresponse.write(\'</title>\\r\\n    <!-- http://dev.w3.org/html5/markup/meta.name.html -->\\r\\n    <meta name="application-name" content="\', escape=False)\nresponse.write(request.application)\nresponse.write(\'">\\r\\n    <!-- Speaking of Google, don\\\'t forget to set your site up:\\r\\n         http://google.com/webmasters -->\\r\\n    <meta name="google-site-verification" content="">\\r\\n    <!-- include stylesheets -->\\r\\n    <link rel="stylesheet" href="\', escape=False)\nresponse.write(URL(\'static\',\'css/bootstrap.min.css\'))\nresponse.write(\'"/>\\r\\n    <link rel="stylesheet" href="\', escape=False)\nresponse.write(URL(\'static\',\'css/web2py-bootstrap3.css\'))\nresponse.write(\'"/>\\r\\n    <link rel="shortcut icon" href="\', escape=False)\nresponse.write(URL(\'static\',\'images/favicon.ico\'))\nresponse.write(\'" type="image/x-icon">\\r\\n    <link rel="apple-touch-icon" href="\', escape=False)\nresponse.write(URL(\'static\',\'images/favicon.png\'))\nresponse.write(\'">\\r\\n    <!-- All JavaScript at the bottom, except for Modernizr which enables\\r\\n         HTML5 elements & feature detects -->\\r\\n    <script src="\', escape=False)\nresponse.write(URL(\'static\',\'js/modernizr-2.8.3.min.js\'))\nresponse.write(\'"></script>\\r\\n    <!--[if lt IE 9]>\\r\\n        <script src="\', escape=False)\nresponse.write(URL(\'static\',\'js/respond-1.4.2.min.js\'))\nresponse.write(\'"></script>\\r\\n        <![endif]-->\\r\\n    <!-- Favicons -->\\r\\n    \', escape=False)\nresponse.write(\'<script type="text/javascript"><!--\\r\\n    // These variables are used by the web2py_ajax_init function in web2py_ajax.js (which is loaded below).\\r\\n    var w2p_ajax_confirm_message = "\', escape=False)\nresponse.write(T(\'Are you sure you want to delete this object?\'))\nresponse.write(\'";\\r\\n    var w2p_ajax_disable_with_message = "\', escape=False)\nresponse.write(T(\'Working...\'))\nresponse.write(\'";\\r\\n    var w2p_ajax_date_format = "\', escape=False)\nresponse.write(T(\'%Y-%m-%d\'))\nresponse.write(\'";\\r\\n    var w2p_ajax_datetime_format = "\', escape=False)\nresponse.write(T(\'%Y-%m-%d %H:%M:%S\'))\nresponse.write(\'";\\r\\n    var ajax_error_500 = \\\'\', escape=False)\nresponse.write(T.M(\'An error occured, please [[reload %s]] the page\') % URL(args=request.args, vars=request.get_vars))\nresponse.write("\'\\r\\n    //--></script>\\r\\n", escape=False)\nresponse.files.insert(0,URL(\'static\',\'js/jquery.js\'))\nresponse.files.insert(1,URL(\'static\',\'css/calendar.css\'))\nresponse.files.insert(2,URL(\'static\',\'js/calendar.js\'))\nresponse.files.insert(3,URL(\'static\',\'js/web2py.js\'))\nresponse.include_meta()\nresponse.include_files()\nresponse.write(\'\\r\\n\', escape=False)\nresponse.write(\' <!-- this includes jquery.js, calendar.js/.css and web2py.js -->\\r\\n    \', escape=False)\nresponse.write(\'\\r\\n    \', escape=False)\n# using sidebars need to know what sidebar you want to use\nmc0 = \'col-md-12\'\nmc1 = \'col-md-9\'\nmc2 = \'col-md-6\'\nleft_sidebar_enabled = globals().get(\'left_sidebar_enabled\', False)\nright_sidebar_enabled = globals().get(\'right_sidebar_enabled\', False)\nmiddle_column = {0: mc0, 1: mc1, 2: mc2}[\n(left_sidebar_enabled and 1 or 0)+(right_sidebar_enabled and 1 or 0)]\nresponse.write(\'\\r\\n  </head>\\r\\n  <body>\\r\\n    <!--[if lt IE 8]><p class="browserupgrade">You are using an <strong>outdated</strong> browser. Please <a href="http://browsehappy.com/">upgrade your browser</a> to improve your experience.</p><![endif]-->\\r\\n    <div class="w2p_flash alert alert-dismissable">\', escape=False)\nresponse.write(response.flash or \'\')\nresponse.write(\'</div>\\r\\n    <!-- Navbar ======================================= -->\\r\\n    <nav class="navbar navbar-default navbar-fixed-top" role="navigation">\\r\\n      <div class="container-fluid">\\r\\n        <div class="navbar-header">\\r\\n          <button type="button" class="navbar-toggle" data-toggle="collapse" data-target=".navbar-collapse">\\r\\n            <span class="sr-only">Toggle navigation</span>\\r\\n            <span class="icon-bar"></span>\\r\\n            <span class="icon-bar"></span>\\r\\n            <span class="icon-bar"></span>\\r\\n          </button>\\r\\n          \', escape=False)\nresponse.write(response.logo or \'\')\nresponse.write(\'\\r\\n        </div>\\r\\n        <div class="collapse navbar-collapse navbar-ex1-collapse">\\r\\n          <ul class="nav navbar-nav navbar-right">\\r\\n            \', escape=False)\nresponse.write(\'auth\' in globals() and auth.navbar(\'Welcome\',mode=\'dropdown\') or \'\')\nresponse.write(\'\\r\\n          </ul>\\r\\n          \', escape=False)\nif response.menu:\n    response.write(\'\\r\\n          \', escape=False)\n    response.write(MENU(response.menu, _class=\'nav navbar-nav\',li_class=\'dropdown\',ul_class=\'dropdown-menu\'))\n    response.write(\'\\r\\n          \', escape=False)\n    pass\nresponse.write(\'\\r\\n        </div>\\r\\n      </div>\\r\\n    </nav>\\r\\n    <!-- Masthead ===================================== -->    \\r\\n    \', escape=False)\nresponse.write(\'\\r\\n    \', escape=False)\nresponse.write(\'\\r\\n    <!-- Main ========================================= -->\\r\\n    <!-- Begin page content -->\\r\\n    <div class="container-fluid main-container">\\r\\n      \', escape=False)\nif left_sidebar_enabled:\n    response.write(\'\\r\\n        <div class="col-md-3 left-sidebar">\\r\\n            \', escape=False)\n    response.write(\'\\r\\n            <h3>Left Sidebar</h3>\\r\\n            <p></p>\\r\\n            \', escape=False)\n    response.write(\'\\r\\n        </div>\\r\\n      \', escape=False)\n    pass\nresponse.write(\'\\r\\n\\r\\n      <div class="\', escape=False)\nresponse.write(middle_column)\nresponse.write(\'">\\r\\n        \', escape=False)\nresponse.write(\'\\r\\n        \', escape=False)\nresponse.write(\'\\r\\n<input type=button style = "position:relative;" align = "left" onClick="location.href=\\\'\', escape=False)\nresponse.write(URL(\'browse\'))\nresponse.write(\'\\\'" value =\\\'Go back to Browse Poems\\\'>\\r\\n\', escape=False)\nvoteFunny = 0\nresponse.write(\'\\r\\n\', escape=False)\nvoteInteresting = 0\nresponse.write(\'\\r\\n\', escape=False)\nvoteCool = 0\nresponse.write(\'\\r\\n\', escape=False)\nvotedFunny = False\nresponse.write(\'\\r\\n\', escape=False)\nvotedInteresting = False\nresponse.write(\'\\r\\n\', escape=False)\nvotedCool = False\nresponse.write(\'\\r\\n\', escape=False)\nfor rates in rating:\n    response.write(\'\\r\\n    \', escape=False)\n    voteFunny += rates.voteFunny\n    response.write(\'\\r\\n    \', escape=False)\n    voteInteresting += rates.voteInteresting\n    response.write(\'\\r\\n    \', escape=False)\n    voteCool += rates.voteCool\n    response.write(\'\\r\\n    \', escape=False)\n    if (rates.author == auth.user.id) and (rates.voteFunny == 1):\n        response.write(\'\\r\\n        \', escape=False)\n        votedFunny = True\n        response.write(\'\\r\\n    \', escape=False)\n        pass\n    response.write(\'\\r\\n    \', escape=False)\n    if (rates.author == auth.user.id) and (rates.voteInteresting == 1):\n        response.write(\'\\r\\n        \', escape=False)\n        votedInteresting = True\n        response.write(\'\\r\\n    \', escape=False)\n        pass\n    response.write(\'\\r\\n    \', escape=False)\n    if (rates.author == auth.user.id) and (rates.voteCool == 1):\n        response.write(\'\\r\\n        \', escape=False)\n        votedCool = True\n        response.write(\'\\r\\n    \', escape=False)\n        pass\n    response.write(\'\\r\\n\', escape=False)\n    pass\nresponse.write(\'\\r\\n<h5>\\r\\n    Votes for Funny : \', escape=False)\nresponse.write(voteFunny)\nresponse.write(\'</br>\\r\\nVotes for Interesting : \', escape=False)\nresponse.write(voteInteresting)\nresponse.write(\'</br>\\r\\nVote for Cool: \', escape=False)\nresponse.write(voteCool)\nresponse.write(\'\\r\\n</h5>\\r\\n<h1 align = "center"><i>\', escape=False)\nresponse.write(poem.title)\nresponse.write(\'</i></h1>\\r\\n</br>\\r\\n\\r\\n\', escape=False)\nif (poem.category == \'16 line ABAB rhyme\') or (poem.category == \'16 line AABB rhyme\') or (poem.category == \'Sonnet\') or (poem.category == \'Limerick\') or (poem.category == \'AAAA\'):\n    response.write(\'\\r\\n<center>\\r\\n    <div style="width:750px;overflow:auto" class = "center"><pre ><font size = "3"><a href="#" data-toggle="tooltip" data-placement="right" title="\', escape=False)\n    response.write(poem.author.username)\n    response.write(\'"style="color: #000000"><div class = "left"><font color = "#9900ff"><b>1  | </b></font></div>\', escape=False)\n    if poem.category == \'Sonnet\':\n        response.write(\' <div class = "left">\', escape=False)\n        response.write(abab.body.splitlines()[0])\n        response.write(\'</div> \', escape=False)\n    else:\n        response.write(abab.body.splitlines()[0])\n        pass\n    response.write(\'<font color = "#9900ff">\\r\\n<div class = "left"><b>2  | </b></div></font>\', escape=False)\n    if poem.category == \'Sonnet\':\n        response.write(\'<div class = "left">\', escape=False)\n        response.write(abab.body.splitlines()[1])\n        response.write(\'</div>\', escape=False)\n    else:\n        response.write(abab.body.splitlines()[1])\n        pass\n    response.write(\'</a>\', escape=False)\n    if lines:\n        for line in lines:\n            response.write(\'</br><a href="#" data-toggle="tooltip" data-placement="right" title="\', escape=False)\n            response.write(line.author.username)\n            response.write(\'"style="color: #000000">\', escape=False)\n            if line.line_number > 9:\n                response.write(\'<font color = "#9900ff"><b><div class = "left">\', escape=False)\n                response.write(line.line_number)\n                response.write(\' | </div></b></font>\', escape=False)\n                if poem.category == \'Sonnet\':\n                    response.write(\'<div class = "left">\', escape=False)\n                    if (poem.category == \'Sonnet\') and (line.line_number > 12):\n                        response.write(\'   \', escape=False)\n                        pass\n                    response.write(line.line)\n                    response.write(\'</div>\', escape=False)\n                else:\n                    response.write(line.line)\n                    pass\n            else:\n                response.write(\'<font color = "#9900ff"><div class = "left"><b>\', escape=False)\n                response.write(line.line_number)\n                response.write(\'  | </b></div></font>\', escape=False)\n                if poem.category == \'Sonnet\':\n                    response.write(\'<div class = "left">\', escape=False)\n                    response.write(line.line)\n                    response.write(\'</div>\', escape=False)\n                else:\n                    response.write(line.line)\n                    pass\n                pass\n            if line.line == \'\':\n                response.write(\'<a href="\', escape=False)\n                response.write(URL(\'specialadd\',args= (poem.id,line.line_number)))\n                response.write(\'" style="color: #ff0000">Deleted Line: Click Here to Add the Line\', escape=False)\n                pass\n            response.write(\'</a>\', escape=False)\n            if (line.line_number % 4 == 0) and (16 > line.line_number) and (poem.category != \'Sonnet\') and (poem.category != \'Limerick\') and (poem.category != \'AAAA\'):\n                response.write(\' </br> \', escape=False)\n                pass\n            pass\n        pass\n    response.write(\'</font></pre></div></div></center>\\r\\n\\r\\n\', escape=False)\nelif poem.category == \'Haiku\':\n    response.write(\'\\r\\n\', escape=False)\n    line2 = True\n    response.write(\'\\r\\n\', escape=False)\n    line3 = True\n    response.write(\'\\r\\n\\r\\n<center>\\r\\n<div style="width:750px;overflow:auto" class = "center"><pre ><font size = "3"><div class = "left"><font color = "#9900ff"><b>1  | </b></font></div><a href="#" data-toggle="tooltip" data-placement="right" title="\', escape=False)\n    response.write(poem.author.username)\n    response.write(\'">\', escape=False)\n    response.write(haiku.start_haiku)\n    response.write(\'</a>\', escape=False)\n    if words:\n        for word in words:\n            if word.word == \'\':\n                response.write(\'<a href="\', escape=False)\n                response.write(URL(\'specialadd\',args= (poem.id,word.word_number)))\n                response.write(\'" style="color: #ff0000">Add Word\', escape=False)\n                pass\n            response.write(\'</a>\', escape=False)\n            if (word.line_count == 2) and (line2 == True):\n                response.write(\'</br><div class = "left"><font color = "#9900ff"><b>2  | </b></font></div>\', escape=False)\n                line2 = False\n                pass\n            if (word.line_count == 3) and (line3 == True):\n                response.write(\'</br><div class = "left"><font color = "#9900ff"><b>3  | </b></font></div>\', escape=False)\n                line3 = False\n                pass\n            response.write(\' <a href="#" data-toggle="tooltip" data-placement="right" title="\', escape=False)\n            response.write(word.author.username)\n            response.write(\'">\', escape=False)\n            response.write(word.word)\n            response.write(\'</a>\', escape=False)\n            pass\n        pass\n    response.write(\'</font></div></pre></div></center>\\r\\n\', escape=False)\nelif poem.category == \'10 line Syllabic Verse\':\n    response.write(\'\\r\\n\', escape=False)\n    line2 = True\n    response.write(\'\\r\\n\', escape=False)\n    line3 = True\n    response.write(\'\\r\\n\', escape=False)\n    line4 = True\n    response.write(\'\\r\\n\', escape=False)\n    line5 = True\n    response.write(\'\\r\\n\', escape=False)\n    line6 = True\n    response.write(\'\\r\\n\', escape=False)\n    line7 = True\n    response.write(\'\\r\\n\', escape=False)\n    line8 = True\n    response.write(\'\\r\\n\', escape=False)\n    line9 = True\n    response.write(\'\\r\\n\', escape=False)\n    line10 = True\n    response.write(\'\\r\\n<center>\\r\\n    <div style="width:750px;overflow:auto" class = "center"><pre ><font size = "3"><div class = "left"><font color = "#9900ff"><b>1  | </b></font></div><a href="#" data-toggle="tooltip" data-placement="right" title="\', escape=False)\n    response.write(poem.author.username)\n    response.write(\'"><div class = "left">\', escape=False)\n    response.write(haiku.start_haiku)\n    response.write(\'</div></a>\', escape=False)\n    if words:\n        for word in words:\n            if word.word == \'\':\n                response.write(\'<a href="\', escape=False)\n                response.write(URL(\'specialadd\',args= (poem.id,word.word_number)))\n                response.write(\'" style="color: #ff0000">Add Word\', escape=False)\n                pass\n            response.write(\'</a>\', escape=False)\n            if (word.line_count == 2) and (line2 == True):\n                response.write(\'</br><div class = "left"><font color = "#9900ff"><b>2  | </b></font></div>\', escape=False)\n                line2 = False\n                pass\n            if (word.line_count == 3) and (line3 == True):\n                response.write(\'</br><div class = "left"><font color = "#9900ff"><b>3  | </b></font></div>\', escape=False)\n                line3 = False\n                pass\n            if (word.line_count == 4) and (line4 == True):\n                response.write(\'</br><div class = "left"><font color = "#9900ff"><b>4  | </b></font></div>\', escape=False)\n                line4 = False\n                pass\n            if (word.line_count == 5) and (line5 == True):\n                response.write(\'</br><div class = "left"><font color = "#9900ff"><b>5  | </b></font></div>\', escape=False)\n                line5 = False\n                pass\n            if (word.line_count == 6) and (line6 == True):\n                response.write(\'</br><div class = "left"><font color = "#9900ff"><b>6  | </b></font></div>\', escape=False)\n                line6 = False\n                pass\n            if (word.line_count == 7) and (line7 == True):\n                response.write(\'</br><div class = "left"><font color = "#9900ff"><b>7  | </b></font></div>\', escape=False)\n                line7 = False\n                pass\n            if (word.line_count == 7) and (line7 == True):\n                response.write(\'</br><div class = "left"><font color = "#9900ff"><b>7  | </b></font></div>\', escape=False)\n                line7 = False\n                pass\n            if (word.line_count == 8) and (line8 == True):\n                response.write(\'</br><div class = "left"><font color = "#9900ff"><b>8  | </b></font></div>\', escape=False)\n                line8 = False\n                pass\n            if (word.line_count == 9) and (line9 == True):\n                response.write(\'</br><div class = "left"><font color = "#9900ff"><b>9  | </b></font></div>\', escape=False)\n                line9 = False\n                pass\n            if (word.line_count == 10) and (line10 == True):\n                response.write(\'</br><div class = "left"><font color = "#9900ff"><b>10 | </b></font></div>\', escape=False)\n                line10 = False\n                pass\n            response.write(\' <a href="#" data-toggle="tooltip" data-placement="right" title="\', escape=False)\n            response.write(word.author.username)\n            response.write(\'"><div class = "left">\', escape=False)\n            response.write(word.word)\n            response.write(\' </div></a>\', escape=False)\n            pass\n        pass\n    response.write(\'</font></div></div></pre></div></center>\\r\\n\\r\\n\', escape=False)\nelif poem.category == \'Acrostic\':\n    response.write(\'\\r\\n<h3>The Word: \', escape=False)\n    response.write(acrostic.word)\n    response.write(\'</h3>\\r\\n<center>\\r\\n    <div style="width:750px;overflow:auto" class = "center"><pre><font size = "5"><div class = "left">\', escape=False)\n    for line in lines:\n        response.write(line.line.capitialize())\n        response.write(\'</br>\', escape=False)\n        pass\n    response.write(\'</div></font></pre></div></center>\\r\\n\', escape=False)\n    pass\nresponse.write(\'\\r\\n<center>\\r\\n<h4>\\r\\n    Author: \', escape=False)\nresponse.write(db.auth_user(poem.author).username)\nresponse.write(\'\\r\\n    </br>\\r\\n    Contributors: \', escape=False)\nif contributors:\n    for person in contributors:\n        response.write(db.auth_user(person.author).username)\n        response.write(\' \', escape=False)\n        pass\n    pass\nresponse.write(\'\\r\\n</h4>\\r\\n\\r\\n\\r\\n</br>\\r\\n</br>\\r\\n<h4>Poem Description: </h4>\\r\\n<div style="width:500px;overflow:auto"><p>\', escape=False)\nresponse.write(poem.description)\nresponse.write(\'</p></div>\\r\\n\\r\\n\', escape=False)\nif (poem.category == \'16 line ABAB rhyme\' and 16 > abab.line_count) or (poem.category == \'16 line AABB rhyme\'and 16 > abab.line_count) or (poem.category == \'Sonnet\' and 14 > abab.line_count) or (poem.category == \'Limerick\' and 5 > abab.line_count) or (poem.category == \'AAAA\' and 8 > abab.line_count) or (poem.category == \'Acrostic\' and len(list(acrostic.word)) > acrostic.line_count) :\n    response.write(\'\\r\\n<input type=button style = "position:relative;" onClick="location.href=\\\'\', escape=False)\n    response.write(URL(\'add_check\',args=poem.id))\n    response.write(\'\\\'" value =\\\'Add line to poem\\\'>\\r\\n\', escape=False)\n    pass\nresponse.write(\'\\r\\n\', escape=False)\nif (poem.category == \'Haiku\' and 17 > haiku.syllable_count) or (poem.category == "10 line Syllabic Verse" and 55 > haiku.syllable_count):\n    response.write(\'\\r\\n<input type=button style = "position:relative;" onClick="location.href=\\\'\', escape=False)\n    response.write(URL(\'add_check\',args=poem.id))\n    response.write(\'\\\'" value =\\\'Add word to poem\\\'>\\r\\n\', escape=False)\n    pass\nresponse.write(\'\\r\\n\\r\\n\', escape=False)\nif (auth.user_id == poem.author) and  (poem.permission == \'Private\'):\n    response.write(\'\\r\\n<input type=button style = "position:relative;" onClick="location.href=\\\'\', escape=False)\n    response.write(URL(\'edit\',args=poem.id))\n    response.write(\'\\\'" value =\\\'Edit poem\\\'>\\r\\n\', escape=False)\n    pass\nresponse.write(\'\\r\\n</br></br>\\r\\n\\r\\n</br>\\r\\n\\r\\n</center>\\r\\n\', escape=False)\nif votedFunny == False or votedInteresting == False or votedCool == False:\n    response.write(\'\\r\\n    <h4>Vote if you think the poem is Funny, Interesting, or Cool or even all the above Here:</h4></br>\\r\\n    \', escape=False)\n    if votedFunny == False:\n        response.write(\' <input type=image style = "position:relative;" onClick="window.location=\\\'\', escape=False)\n        response.write(URL(\'default\',\'upVoteFunny\',args=poem.id))\n        response.write(\'\\\'" src = "/P2P/static/images/funny.jpg/" width = "100px" heigth = "100px" value =\\\'UpVote for Funny\\\'> \', escape=False)\n        pass\n    response.write(\'\\r\\n    \', escape=False)\n    if votedInteresting == False:\n        response.write(\'<input type=image style = "position:relative;" onClick="window.location=\\\'\', escape=False)\n        response.write(URL(\'default\',\'upVoteInteresting\',args=poem.id))\n        response.write(\'\\\'" src = "/P2P/static/images/interesting.jpg/" width = "120px" heigth = "120px" value =\\\'UpVote for Interesting\\\'>\', escape=False)\n        pass\n    response.write(\'\\r\\n    \', escape=False)\n    if votedCool == False:\n        response.write(\'<input type=image style = "position:relative;" onClick="window.location=\\\'\', escape=False)\n        response.write(URL(\'default\',\'upVoteCool\',args=poem.id))\n        response.write(\'\\\'" src = "/P2P/static/images/cool.jpg/" width = "100px" heigth = "100px" value =\\\'UpVote for Cool\\\'>\', escape=False)\n        pass\n    response.write(\'\\r\\n\', escape=False)\n    pass\nresponse.write(\'\\r\\n<script>\\r\\n$(document).ready(function(){\\r\\n    $(\\\'[data-toggle="tooltip"]\\\').tooltip();\\r\\n});\\r\\n</script>\\r\\n\', escape=False)\nresponse.write(\'\\r\\n        \', escape=False)\nresponse.write(\'\\r\\n      </div>\\r\\n\\r\\n      \', escape=False)\nif right_sidebar_enabled:\n    response.write(\'\\r\\n        <div class="col-md-3">\\r\\n            \', escape=False)\n    response.write(\'\\r\\n            <h3>Right Sidebar</h3>\\r\\n            <p></p>\\r\\n            \', escape=False)\n    response.write(\'\\r\\n        </div>\\r\\n      \', escape=False)\n    pass\nresponse.write(\'\\r\\n\\r\\n    </div>\\r\\n\\r\\n\\r\\n    <!-- The javascript =============================== -->\\r\\n    <script src="\', escape=False)\nresponse.write(URL(\'static\',\'js/bootstrap.min.js\'))\nresponse.write(\'"></script>\\r\\n    <script src="\', escape=False)\nresponse.write(URL(\'static\',\'js/web2py-bootstrap3.js\'))\nresponse.write(\'"></script>\\r\\n    \', escape=False)\nresponse.write(\'\\r\\n    \', escape=False)\nif response.google_analytics_id:\n    response.write(\'\\r\\n    <!-- Analytics ==================================== -->\\r\\n    <script src="\', escape=False)\n    response.write(URL(\'static\',\'js/analytics.min.js\'))\n    response.write(\'"></script>\\r\\n    <script type="text/javascript">\\r\\n      analytics.initialize({\\r\\n      \\\'Google Analytics\\\':{trackingId:\\\'\', escape=False)\n    response.write(response.google_analytics_id)\n    response.write("\'}\\r\\n      });\\r\\n    </script>\\r\\n    ", escape=False)\n    pass\nresponse.write(\'\\r\\n    <!-- Share ============================y============ -->\\r\\n    <script src="\', escape=False)\nresponse.write(URL(\'static\',\'js/share.js\',vars=dict(static=URL(\'static\',\'images\'))))\nresponse.write(\'"></script>\\r\\n  </body>\\r\\n</html>\\r\\n\', escape=False)'
p7
sS'snapshot'
p8
(dp9
S'exception'
p10
(dp11
S'__hash__'
p12
S"<method-wrapper '__hash__' of exceptions.AttributeError object>"
p13
sS'__setattr__'
p14
S"<method-wrapper '__setattr__' of exceptions.AttributeError object>"
p15
sS'__reduce_ex__'
p16
S'<built-in method __reduce_ex__ of exceptions.AttributeError object>'
p17
sS'__getslice__'
p18
S"<method-wrapper '__getslice__' of exceptions.AttributeError object>"
p19
sS'__getitem__'
p20
S"<method-wrapper '__getitem__' of exceptions.AttributeError object>"
p21
sS'__setstate__'
p22
S'<built-in method __setstate__ of exceptions.AttributeError object>'
p23
sS'__reduce__'
p24
S'<built-in method __reduce__ of exceptions.AttributeError object>'
p25
sS'__str__'
p26
S"<method-wrapper '__str__' of exceptions.AttributeError object>"
p27
sS'__format__'
p28
S'<built-in method __format__ of exceptions.AttributeError object>'
p29
sS'__getattribute__'
p30
S"<method-wrapper '__getattribute__' of exceptions.AttributeError object>"
p31
sS'__class__'
p32
S"<type 'exceptions.AttributeError'>"
p33
sS'__unicode__'
p34
S'<built-in method __unicode__ of exceptions.AttributeError object>'
p35
sS'__delattr__'
p36
S"<method-wrapper '__delattr__' of exceptions.AttributeError object>"
p37
sS'__subclasshook__'
p38
S'<built-in method __subclasshook__ of type object>'
p39
sS'__repr__'
p40
S"<method-wrapper '__repr__' of exceptions.AttributeError object>"
p41
sS'args'
p42
S'("\'str\' object has no attribute \'capitialize\'",)'
p43
sS'__dict__'
p44
S'{}'
p45
sS'__sizeof__'
p46
S'<built-in method __sizeof__ of exceptions.AttributeError object>'
p47
sS'__doc__'
p48
S"'Attribute not found.'"
p49
sS'__init__'
p50
S"<method-wrapper '__init__' of exceptions.AttributeError object>"
p51
sS'__new__'
p52
S'<built-in method __new__ of type object>'
p53
ssS'evalue'
p54
S"'str' object has no attribute 'capitialize'"
p55
sS'request'
p56
cgluon.html
XML_unpickle
p57
(S's(^\x00\x00<div><table><tr><td style="font-weight:bold;vertical-align:top;">ajax</td><td style="vertical-align:top;">:</td><td><div>False</div></td></tr><tr><td style="font-weight:bold;vertical-align:top;">application</td><td style="vertical-align:top;">:</td><td><div>P2P</div></td></tr><tr><td style="font-weight:bold;vertical-align:top;">args</td><td style="vertical-align:top;">:</td><td><div><table><tr><td><div>67</div></td></tr></table></div></td></tr><tr><td style="font-weight:bold;vertical-align:top;">cid</td><td style="vertical-align:top;">:</td><td><div>None</div></td></tr><tr><td style="font-weight:bold;vertical-align:top;">client</td><td style="vertical-align:top;">:</td><td><div>127.0.0.1</div></td></tr><tr><td style="font-weight:bold;vertical-align:top;">controller</td><td style="vertical-align:top;">:</td><td><div>default</div></td></tr><tr><td style="font-weight:bold;vertical-align:top;">cookies</td><td style="vertical-align:top;">:</td><td><div><table><tr><td style="font-weight:bold;vertical-align:top;">session_id_admin</td><td style="vertical-align:top;">:</td><td><div>127.0.0.1-61370b48-ff46-4e5b-933e-095eb3c7c1aa<table><tr><td style="font-weight:bold;vertical-align:top;">comment</td><td style="vertical-align:top;">:</td><td><div></div></td></tr><tr><td style="font-weight:bold;vertical-align:top;">domain</td><td style="vertical-align:top;">:</td><td><div></div></td></tr><tr><td style="font-weight:bold;vertical-align:top;">expires</td><td style="vertical-align:top;">:</td><td><div></div></td></tr><tr><td style="font-weight:bold;vertical-align:top;">httponly</td><td style="vertical-align:top;">:</td><td><div></div></td></tr><tr><td style="font-weight:bold;vertical-align:top;">max-age</td><td style="vertical-align:top;">:</td><td><div></div></td></tr><tr><td style="font-weight:bold;vertical-align:top;">path</td><td style="vertical-align:top;">:</td><td><div></div></td></tr><tr><td style="font-weight:bold;vertical-align:top;">secure</td><td style="vertical-align:top;">:</td><td><div></div></td></tr><tr><td style="font-weight:bold;vertical-align:top;">version</td><td style="vertical-align:top;">:</td><td><div></div></td></tr></table></div></td></tr><tr><td style="font-weight:bold;vertical-align:top;">session_id_p2p</td><td style="vertical-align:top;">:</td><td><div>127.0.0.1-23d4f5a5-a46d-442c-a19e-a67bb988c73a<table><tr><td style="font-weight:bold;vertical-align:top;">comment</td><td style="vertical-align:top;">:</td><td><div></div></td></tr><tr><td style="font-weight:bold;vertical-align:top;">domain</td><td style="vertical-align:top;">:</td><td><div></div></td></tr><tr><td style="font-weight:bold;vertical-align:top;">expires</td><td style="vertical-align:top;">:</td><td><div></div></td></tr><tr><td style="font-weight:bold;vertical-align:top;">httponly</td><td style="vertical-align:top;">:</td><td><div></div></td></tr><tr><td style="font-weight:bold;vertical-align:top;">max-age</td><td style="vertical-align:top;">:</td><td><div></div></td></tr><tr><td style="font-weight:bold;vertical-align:top;">path</td><td style="vertical-align:top;">:</td><td><div></div></td></tr><tr><td style="font-weight:bold;vertical-align:top;">secure</td><td style="vertical-align:top;">:</td><td><div></div></td></tr><tr><td style="font-weight:bold;vertical-align:top;">version</td><td style="vertical-align:top;">:</td><td><div></div></td></tr></table></div></td></tr><tr><td style="font-weight:bold;vertical-align:top;">session_id_welcome</td><td style="vertical-align:top;">:</td><td><div>127.0.0.1-f100e589-b482-414a-b872-130490d68cb1<table><tr><td style="font-weight:bold;vertical-align:top;">comment</td><td style="vertical-align:top;">:</td><td><div></div></td></tr><tr><td style="font-weight:bold;vertical-align:top;">domain</td><td style="vertical-align:top;">:</td><td><div></div></td></tr><tr><td style="font-weight:bold;vertical-align:top;">expires</td><td style="vertical-align:top;">:</td><td><div></div></td></tr><tr><td style="font-weight:bold;vertical-align:top;">httponly</td><td style="vertical-align:top;">:</td><td><div></div></td></tr><tr><td style="font-weight:bold;vertical-align:top;">max-age</td><td style="vertical-align:top;">:</td><td><div></div></td></tr><tr><td style="font-weight:bold;vertical-align:top;">path</td><td style="vertical-align:top;">:</td><td><div></div></td></tr><tr><td style="font-weight:bold;vertical-align:top;">secure</td><td style="vertical-align:top;">:</td><td><div></div></td></tr><tr><td style="font-weight:bold;vertical-align:top;">version</td><td style="vertical-align:top;">:</td><td><div></div></td></tr></table></div></td></tr></table></div></td></tr><tr><td style="font-weight:bold;vertical-align:top;">env</td><td style="vertical-align:top;">:</td><td><div><table><tr><td style="font-weight:bold;vertical-align:top;">HTTP_ACCEPT</td><td style="vertical-align:top;">:</td><td><div>text/html,application/xhtml+xml,application/xml;q=0.9,image/webp,*/*;q=0.8</div></td></tr><tr><td style="font-weight:bold;vertical-align:top;">HTTP_ACCEPT_ENCODING</td><td style="vertical-align:top;">:</td><td><div>gzip, deflate, sdch</div></td></tr><tr><td style="font-weight:bold;vertical-align:top;">HTTP_ACCEPT_LANGUAGE</td><td style="vertical-align:top;">:</td><td><div>en-US,en;q=0.8</div></td></tr><tr><td style="font-weight:bold;vertical-align:top;">HTTP_CACHE_CONTROL</td><td style="vertical-align:top;">:</td><td><div>max-age=0</div></td></tr><tr><td style="font-weight:bold;vertical-align:top;">HTTP_CONNECTION</td><td style="vertical-align:top;">:</td><td><div>keep-alive</div></td></tr><tr><td style="font-weight:bold;vertical-align:top;">HTTP_COOKIE</td><td style="vertical-align:top;">:</td><td><div>session_id_welcome=127.0.0.1-f100e589-b482-414a-b872-130490d68cb1; session_id_p2p=127.0.0.1-23d4f5a5-a46d-442c-a19e-a67bb988c73a; session_id_admin=127.0.0.1-61370b48-ff46-4e5b-933e-095eb3c7c1aa</div></td></tr><tr><td style="font-weight:bold;vertical-align:top;">HTTP_HOST</td><td style="vertical-align:top;">:</td><td><div>127.0.0.1:8000</div></td></tr><tr><td style="font-weight:bold;vertical-align:top;">HTTP_REFERER</td><td style="vertical-align:top;">:</td><td><div>http://127.0.0.1:8000/P2P/default/browse</div></td></tr><tr><td style="font-weight:bold;vertical-align:top;">HTTP_UPGRADE_INSECURE_REQUESTS</td><td style="vertical-align:top;">:</td><td><div>1</div></td></tr><tr><td style="font-weight:bold;vertical-align:top;">HTTP_USER_AGENT</td><td style="vertical-align:top;">:</td><td><div>Mozilla/5.0 (Windows NT 6.1; WOW64) AppleWebKit/537.36 (KHTML, like Gecko) Chrome/49.0.2623.75 Safari/537.36</div></td></tr><tr><td style="font-weight:bold;vertical-align:top;">PATH_INFO</td><td style="vertical-align:top;">:</td><td><div>/P2P/default/poem/67</div></td></tr><tr><td style="font-weight:bold;vertical-align:top;">QUERY_STRING</td><td style="vertical-align:top;">:</td><td><div></div></td></tr><tr><td style="font-weight:bold;vertical-align:top;">REMOTE_ADDR</td><td style="vertical-align:top;">:</td><td><div>127.0.0.1</div></td></tr><tr><td style="font-weight:bold;vertical-align:top;">REMOTE_PORT</td><td style="vertical-align:top;">:</td><td><div>57731</div></td></tr><tr><td style="font-weight:bold;vertical-align:top;">REQUEST_METHOD</td><td style="vertical-align:top;">:</td><td><div>GET</div></td></tr><tr><td style="font-weight:bold;vertical-align:top;">SCRIPT_NAME</td><td style="vertical-align:top;">:</td><td><div></div></td></tr><tr><td style="font-weight:bold;vertical-align:top;">SERVER_NAME</td><td style="vertical-align:top;">:</td><td><div>Kevin-PC</div></td></tr><tr><td style="font-weight:bold;vertical-align:top;">SERVER_PORT</td><td style="vertical-align:top;">:</td><td><div>8000</div></td></tr><tr><td style="font-weight:bold;vertical-align:top;">SERVER_PROTOCOL</td><td style="vertical-align:top;">:</td><td><div>HTTP/1.1</div></td></tr><tr><td style="font-weight:bold;vertical-align:top;">SERVER_SOFTWARE</td><td style="vertical-align:top;">:</td><td><div>Rocket 1.2.6</div></td></tr><tr><td style="font-weight:bold;vertical-align:top;">app_folders</td><td style="vertical-align:top;">:</td><td><div>set([&#x27;C:\\\\Users\\\\Kevin\\\\Desktop\\\\web2py\\\\applications\\\\admin\\\\&#x27;, &#x27;C:\\\\Users\\\\Kevin\\\\Desktop\\\\web2py\\\\applications\\\\P2P\\\\&#x27;, &#x27;C:\\\\Users\\\\Kevin\\\\Desktop\\\\web2py\\\\applications\\\\welcome\\\\&#x27;])</div></td></tr><tr><td style="font-weight:bold;vertical-align:top;">applications_parent</td><td style="vertical-align:top;">:</td><td><div>C:\\Users\\Kevin\\Desktop\\web2py</div></td></tr><tr><td style="font-weight:bold;vertical-align:top;">cmd_args</td><td style="vertical-align:top;">:</td><td><div><table></table></div></td></tr><tr><td style="font-weight:bold;vertical-align:top;">cmd_options</td><td style="vertical-align:top;">:</td><td><div>&lt;Values at 0x3061698: {&#x27;verbose&#x27;: False, &#x27;ip&#x27;: &#x27;127.0.0.1&#x27;, &#x27;debuglevel&#x27;: 30, &#x27;with_scheduler&#x27;: False, &#x27;ips&#x27;: [&#x27;192.168.1.16&#x27;, &#x27;fe80::6489:5c31:d6e6:e8d8%11&#x27;], &#x27;shutdown_timeout&#x27;: 5, &#x27;taskbar&#x27;: False, &#x27;with_coverage&#x27;: False, &#x27;scheduler_groups&#x27;: None, &#x27;port&#x27;: 8000, &#x27;maxthreads&#x27;: None, &#x27;softcron&#x27;: False, &#x27;server_name&#x27;: &#x27;Kevin-PC&#x27;, &#x27;bpython&#x27;: False, &#x27;nogui&#x27;: False, &#x27;pid_filename&#x27;: &#x27;httpserver.pid&#x27;, &#x27;print_errors&#x27;: False, &#x27;extcron&#x27;: False, &#x27;runcron&#x27;: False, &#x27;run_system_tests&#x27;: False, &#x27;test&#x27;: None, &#x27;folder&#x27;: &#x27;C:\\\\Users\\\\Kevin\\\\Desktop\\\\web2py&#x27;, &#x27;config&#x27;: &#x27;&#x27;, &#x27;minthreads&#x27;: None, &#x27;shell&#x27;: None, &#x27;run&#x27;: &#x27;&#x27;, &#x27;log_filename&#x27;: &#x27;httpserver.log&#x27;, &#x27;profiler_dir&#x27;: None, &#x27;args&#x27;: [&#x27;&#x27;], &#x27;socket_timeout&#x27;: 5, &#x27;ssl_ca_certificate&#x27;: None, &#x27;scheduler&#x27;: None, &#x27;interfaces&#x27;: None, &#x27;ssl_private_key&#x27;: &#x27;&#x27;, &#x27;gae&#x27;: None, &#x27;password&#x27;: &#x27;&lt;ask&gt;&#x27;, &#x27;request_queue_size&#x27;: 5, &#x27;ssl_certificate&#x27;: &#x27;&#x27;, &#x27;cronjob&#x27;: False, &#x27;numthreads&#x27;: None, &#x27;quiet&#x27;: False, &#x27;import_models&#x27;: False, &#x27;timeout&#x27;: 10, &#x27;plain&#x27;: False, &#x27;nobanner&#x27;: False}&gt;</div></td></tr><tr><td style="font-weight:bold;vertical-align:top;">db_sessions</td><td style="vertical-align:top;">:</td><td><div>set([])</div></td></tr><tr><td style="font-weight:bold;vertical-align:top;">debugging</td><td style="vertical-align:top;">:</td><td><div>True</div></td></tr><tr><td style="font-weight:bold;vertical-align:top;">gluon_parent</td><td style="vertical-align:top;">:</td><td><div>C:\\Users\\Kevin\\Desktop\\web2py</div></td></tr><tr><td style="font-weight:bold;vertical-align:top;">http_accept</td><td style="vertical-align:top;">:</td><td><div>text/html,application/xhtml+xml,application/xml;q=0.9,image/webp,*/*;q=0.8</div></td></tr><tr><td style="font-weight:bold;vertical-align:top;">http_accept_encoding</td><td style="vertical-align:top;">:</td><td><div>gzip, deflate, sdch</div></td></tr><tr><td style="font-weight:bold;vertical-align:top;">http_accept_language</td><td style="vertical-align:top;">:</td><td><div>en-US,en;q=0.8</div></td></tr><tr><td style="font-weight:bold;vertical-align:top;">http_cache_control</td><td style="vertical-align:top;">:</td><td><div>max-age=0</div></td></tr><tr><td style="font-weight:bold;vertical-align:top;">http_connection</td><td style="vertical-align:top;">:</td><td><div>keep-alive</div></td></tr><tr><td style="font-weight:bold;vertical-align:top;">http_cookie</td><td style="vertical-align:top;">:</td><td><div>session_id_welcome=127.0.0.1-f100e589-b482-414a-b872-130490d68cb1; session_id_p2p=127.0.0.1-23d4f5a5-a46d-442c-a19e-a67bb988c73a; session_id_admin=127.0.0.1-61370b48-ff46-4e5b-933e-095eb3c7c1aa</div></td></tr><tr><td style="font-weight:bold;vertical-align:top;">http_host</td><td style="vertical-align:top;">:</td><td><div>127.0.0.1:8000</div></td></tr><tr><td style="font-weight:bold;vertical-align:top;">http_referer</td><td style="vertical-align:top;">:</td><td><div>http://127.0.0.1:8000/P2P/default/browse</div></td></tr><tr><td style="font-weight:bold;vertical-align:top;">http_upgrade_insecure_requests</td><td style="vertical-align:top;">:</td><td><div>1</div></td></tr><tr><td style="font-weight:bold;vertical-align:top;">http_user_agent</td><td style="vertical-align:top;">:</td><td><div>Mozilla/5.0 (Windows NT 6.1; WOW64) AppleWebKit/537.36 (KHTML, like Gecko) Chrome/49.0.2623.75 Safari/537.36</div></td></tr><tr><td style="font-weight:bold;vertical-align:top;">is_jython</td><td style="vertical-align:top;">:</td><td><div>False</div></td></tr><tr><td style="font-weight:bold;vertical-align:top;">is_pypy</td><td style="vertical-align:top;">:</td><td><div>False</div></td></tr><tr><td style="font-weight:bold;vertical-align:top;">is_source</td><td style="vertical-align:top;">:</td><td><div>False</div></td></tr><tr><td style="font-weight:bold;vertical-align:top;">local_hosts</td><td style="vertical-align:top;">:</td><td><div><table><tr><td><div>Kevin-PC</div></td></tr><tr><td><div>192.168.1.16</div></td></tr><tr><td><div>::1</div></td></tr><tr><td><div>fe80::6489:5c31:d6e6:e8d8%11</div></td></tr><tr><td><div>::ffff:127.0.0.1</div></td></tr><tr><td><div>127.0.0.1</div></td></tr></table></div></td></tr><tr><td style="font-weight:bold;vertical-align:top;">path_info</td><td style="vertical-align:top;">:</td><td><div>/P2P/default/poem/67</div></td></tr><tr><td style="font-weight:bold;vertical-align:top;">query_string</td><td style="vertical-align:top;">:</td><td><div></div></td></tr><tr><td style="font-weight:bold;vertical-align:top;">remote_addr</td><td style="vertical-align:top;">:</td><td><div>127.0.0.1</div></td></tr><tr><td style="font-weight:bold;vertical-align:top;">remote_port</td><td style="vertical-align:top;">:</td><td><div>57731</div></td></tr><tr><td style="font-weight:bold;vertical-align:top;">request_method</td><td style="vertical-align:top;">:</td><td><div>GET</div></td></tr><tr><td style="font-weight:bold;vertical-align:top;">request_uri</td><td style="vertical-align:top;">:</td><td><div>/P2P/default/poem/67</div></td></tr><tr><td style="font-weight:bold;vertical-align:top;">script_name</td><td style="vertical-align:top;">:</td><td><div></div></td></tr><tr><td style="font-weight:bold;vertical-align:top;">server_name</td><td style="vertical-align:top;">:</td><td><div>Kevin-PC</div></td></tr><tr><td style="font-weight:bold;vertical-align:top;">server_port</td><td style="vertical-align:top;">:</td><td><div>8000</div></td></tr><tr><td style="font-weight:bold;vertical-align:top;">server_protocol</td><td style="vertical-align:top;">:</td><td><div>HTTP/1.1</div></td></tr><tr><td style="font-weight:bold;vertical-align:top;">server_software</td><td style="vertical-align:top;">:</td><td><div>Rocket 1.2.6</div></td></tr><tr><td style="font-weight:bold;vertical-align:top;">web2py_path</td><td style="vertical-align:top;">:</td><td><div>C:\\Users\\Kevin\\Desktop\\web2py</div></td></tr><tr><td style="font-weight:bold;vertical-align:top;">web2py_version</td><td style="vertical-align:top;">:</td><td><div>2.13.4-stable+timestamp.2015.12.26.04.59.39</div></td></tr><tr><td style="font-weight:bold;vertical-align:top;">wsgi.errors</td><td style="vertical-align:top;">:</td><td><div>&lt;open file &#x27;&lt;stderr&gt;&#x27;, mode &#x27;w&#x27; at 0x0030D0D0&gt;</div></td></tr><tr><td style="font-weight:bold;vertical-align:top;">wsgi.file_wrapper</td><td style="vertical-align:top;">:</td><td><div>&lt;class wsgiref.util.FileWrapper at 0x02438228&gt;</div></td></tr><tr><td style="font-weight:bold;vertical-align:top;">wsgi.input</td><td style="vertical-align:top;">:</td><td><div>&lt;socket._fileobject object at 0x08BE7430&gt;</div></td></tr><tr><td style="font-weight:bold;vertical-align:top;">wsgi.multiprocess</td><td style="vertical-align:top;">:</td><td><div>False</div></td></tr><tr><td style="font-weight:bold;vertical-align:top;">wsgi.multithread</td><td style="vertical-align:top;">:</td><td><div>True</div></td></tr><tr><td style="font-weight:bold;vertical-align:top;">wsgi.run_once</td><td style="vertical-align:top;">:</td><td><div>False</div></td></tr><tr><td style="font-weight:bold;vertical-align:top;">wsgi.url_scheme</td><td style="vertical-align:top;">:</td><td><div>http</div></td></tr><tr><td style="font-weight:bold;vertical-align:top;">wsgi.version</td><td style="vertical-align:top;">:</td><td><div><table><tr><td><div>1</div></td></tr><tr><td><div>0</div></td></tr></table></div></td></tr><tr><td style="font-weight:bold;vertical-align:top;">wsgi_errors</td><td style="vertical-align:top;">:</td><td><div>&lt;open file &#x27;&lt;stderr&gt;&#x27;, mode &#x27;w&#x27; at 0x0030D0D0&gt;</div></td></tr><tr><td style="font-weight:bold;vertical-align:top;">wsgi_file_wrapper</td><td style="vertical-align:top;">:</td><td><div>&lt;class wsgiref.util.FileWrapper at 0x02438228&gt;</div></td></tr><tr><td style="font-weight:bold;vertical-align:top;">wsgi_input</td><td style="vertical-align:top;">:</td><td><div>&lt;socket._fileobject object at 0x08BE7430&gt;</div></td></tr><tr><td style="font-weight:bold;vertical-align:top;">wsgi_multiprocess</td><td style="vertical-align:top;">:</td><td><div>False</div></td></tr><tr><td style="font-weight:bold;vertical-align:top;">wsgi_multithread</td><td style="vertical-align:top;">:</td><td><div>True</div></td></tr><tr><td style="font-weight:bold;vertical-align:top;">wsgi_run_once</td><td style="vertical-align:top;">:</td><td><div>False</div></td></tr><tr><td style="font-weight:bold;vertical-align:top;">wsgi_url_scheme</td><td style="vertical-align:top;">:</td><td><div>http</div></td></tr><tr><td style="font-weight:bold;vertical-align:top;">wsgi_version</td><td style="vertical-align:top;">:</td><td><div><table><tr><td><div>1</div></td></tr><tr><td><div>0</div></td></tr></table></div></td></tr></table></div></td></tr><tr><td style="font-weight:bold;vertical-align:top;">extension</td><td style="vertical-align:top;">:</td><td><div>html</div></td></tr><tr><td style="font-weight:bold;vertical-align:top;">folder</td><td style="vertical-align:top;">:</td><td><div>C:\\Users\\Kevin\\Desktop\\web2py\\applications\\P2P\\</div></td></tr><tr><td style="font-weight:bold;vertical-align:top;">function</td><td style="vertical-align:top;">:</td><td><div>poem</div></td></tr><tr><td style="font-weight:bold;vertical-align:top;">global_settings</td><td style="vertical-align:top;">:</td><td><div><table><tr><td style="font-weight:bold;vertical-align:top;">app_folders</td><td style="vertical-align:top;">:</td><td><div>set([&#x27;C:\\\\Users\\\\Kevin\\\\Desktop\\\\web2py\\\\applications\\\\admin\\\\&#x27;, &#x27;C:\\\\Users\\\\Kevin\\\\Desktop\\\\web2py\\\\applications\\\\P2P\\\\&#x27;, &#x27;C:\\\\Users\\\\Kevin\\\\Desktop\\\\web2py\\\\applications\\\\welcome\\\\&#x27;])</div></td></tr><tr><td style="font-weight:bold;vertical-align:top;">applications_parent</td><td style="vertical-align:top;">:</td><td><div>C:\\Users\\Kevin\\Desktop\\web2py</div></td></tr><tr><td style="font-weight:bold;vertical-align:top;">cmd_args</td><td style="vertical-align:top;">:</td><td><div><table></table></div></td></tr><tr><td style="font-weight:bold;vertical-align:top;">cmd_options</td><td style="vertical-align:top;">:</td><td><div>&lt;Values at 0x3061698: {&#x27;verbose&#x27;: False, &#x27;ip&#x27;: &#x27;127.0.0.1&#x27;, &#x27;debuglevel&#x27;: 30, &#x27;with_scheduler&#x27;: False, &#x27;ips&#x27;: [&#x27;192.168.1.16&#x27;, &#x27;fe80::6489:5c31:d6e6:e8d8%11&#x27;], &#x27;shutdown_timeout&#x27;: 5, &#x27;taskbar&#x27;: False, &#x27;with_coverage&#x27;: False, &#x27;scheduler_groups&#x27;: None, &#x27;port&#x27;: 8000, &#x27;maxthreads&#x27;: None, &#x27;softcron&#x27;: False, &#x27;server_name&#x27;: &#x27;Kevin-PC&#x27;, &#x27;bpython&#x27;: False, &#x27;nogui&#x27;: False, &#x27;pid_filename&#x27;: &#x27;httpserver.pid&#x27;, &#x27;print_errors&#x27;: False, &#x27;extcron&#x27;: False, &#x27;runcron&#x27;: False, &#x27;run_system_tests&#x27;: False, &#x27;test&#x27;: None, &#x27;folder&#x27;: &#x27;C:\\\\Users\\\\Kevin\\\\Desktop\\\\web2py&#x27;, &#x27;config&#x27;: &#x27;&#x27;, &#x27;minthreads&#x27;: None, &#x27;shell&#x27;: None, &#x27;run&#x27;: &#x27;&#x27;, &#x27;log_filename&#x27;: &#x27;httpserver.log&#x27;, &#x27;profiler_dir&#x27;: None, &#x27;args&#x27;: [&#x27;&#x27;], &#x27;socket_timeout&#x27;: 5, &#x27;ssl_ca_certificate&#x27;: None, &#x27;scheduler&#x27;: None, &#x27;interfaces&#x27;: None, &#x27;ssl_private_key&#x27;: &#x27;&#x27;, &#x27;gae&#x27;: None, &#x27;password&#x27;: &#x27;&lt;ask&gt;&#x27;, &#x27;request_queue_size&#x27;: 5, &#x27;ssl_certificate&#x27;: &#x27;&#x27;, &#x27;cronjob&#x27;: False, &#x27;numthreads&#x27;: None, &#x27;quiet&#x27;: False, &#x27;import_models&#x27;: False, &#x27;timeout&#x27;: 10, &#x27;plain&#x27;: False, &#x27;nobanner&#x27;: False}&gt;</div></td></tr><tr><td style="font-weight:bold;vertical-align:top;">db_sessions</td><td style="vertical-align:top;">:</td><td><div>set([])</div></td></tr><tr><td style="font-weight:bold;vertical-align:top;">debugging</td><td style="vertical-align:top;">:</td><td><div>True</div></td></tr><tr><td style="font-weight:bold;vertical-align:top;">gluon_parent</td><td style="vertical-align:top;">:</td><td><div>C:\\Users\\Kevin\\Desktop\\web2py</div></td></tr><tr><td style="font-weight:bold;vertical-align:top;">is_jython</td><td style="vertical-align:top;">:</td><td><div>False</div></td></tr><tr><td style="font-weight:bold;vertical-align:top;">is_pypy</td><td style="vertical-align:top;">:</td><td><div>False</div></td></tr><tr><td style="font-weight:bold;vertical-align:top;">is_source</td><td style="vertical-align:top;">:</td><td><div>False</div></td></tr><tr><td style="font-weight:bold;vertical-align:top;">local_hosts</td><td style="vertical-align:top;">:</td><td><div><table><tr><td><div>Kevin-PC</div></td></tr><tr><td><div>192.168.1.16</div></td></tr><tr><td><div>::1</div></td></tr><tr><td><div>fe80::6489:5c31:d6e6:e8d8%11</div></td></tr><tr><td><div>::ffff:127.0.0.1</div></td></tr><tr><td><div>127.0.0.1</div></td></tr></table></div></td></tr><tr><td style="font-weight:bold;vertical-align:top;">web2py_version</td><td style="vertical-align:top;">:</td><td><div>2.13.4-stable+timestamp.2015.12.26.04.59.39</div></td></tr></table></div></td></tr><tr><td style="font-weight:bold;vertical-align:top;">is_https</td><td style="vertical-align:top;">:</td><td><div>False</div></td></tr><tr><td style="font-weight:bold;vertical-align:top;">is_local</td><td style="vertical-align:top;">:</td><td><div>True</div></td></tr><tr><td style="font-weight:bold;vertical-align:top;">is_restful</td><td style="vertical-align:top;">:</td><td><div>False</div></td></tr><tr><td style="font-weight:bold;vertical-align:top;">is_scheduler</td><td style="vertical-align:top;">:</td><td><div>False</div></td></tr><tr><td style="font-weight:bold;vertical-align:top;">is_shell</td><td style="vertical-align:top;">:</td><td><div>False</div></td></tr><tr><td style="font-weight:bold;vertical-align:top;">now</td><td style="vertical-align:top;">:</td><td><div>datetime.datetime(2016, 3, 5, 4, 31, 25, 875000)</div></td></tr><tr><td style="font-weight:bold;vertical-align:top;">raw_args</td><td style="vertical-align:top;">:</td><td><div>67</div></td></tr><tr><td style="font-weight:bold;vertical-align:top;">raw_extension</td><td style="vertical-align:top;">:</td><td><div>None</div></td></tr><tr><td style="font-weight:bold;vertical-align:top;">url</td><td style="vertical-align:top;">:</td><td><div>/P2P/default/poem/67</div></td></tr><tr><td style="font-weight:bold;vertical-align:top;">utcnow</td><td style="vertical-align:top;">:</td><td><div>datetime.datetime(2016, 3, 5, 12, 31, 25, 875000)</div></td></tr><tr><td style="font-weight:bold;vertical-align:top;">wsgi</td><td style="vertical-align:top;">:</td><td><div>&lt;gluon.main.LazyWSGI object at 0x08BF3690&gt;</div></td></tr></table></div>'
tRp58
sS'frames'
p59
(lp60
(dp61
S'file'
p62
S'C:\\Users\\Kevin\\Desktop\\web2py\\gluon\\restricted.py'
p63
sS'dump'
p64
(dp65
S'environment'
p66
S"{'A': <class 'gluon.html.A'>, 'ANY_OF': <class 'gluon.validators.ANY_OF'>, 'ASSIGNJS': <function ASSIGNJS>, 'AppConfig': <function AppConfig>, 'Auth': <class 'gluon.tools.Auth'>, 'B': <class 'gluon.html.B'>, 'BEAUTIFY': <class 'gluon.html.BEAUTIFY'>, 'BODY': <class 'gluon.html.BODY'>, 'BR': <class 'gluon.html.BR'>, 'BUTTON': <class 'gluon.html.BUTTON'>, ...}"
p67
sS'ccode'
p68
S'<code object <module> at 08C11CC8, file "C:\\User...pplications\\P2P\\views\\default/poem.html", line 1>'
p69
ssS'lnum'
p70
I227
sS'lines'
p71
(dp72
I224
S'            ccode = code'
p73
sI225
S'        else:'
p74
sI226
S'            ccode = compile2(code, layer)'
p75
sI227
S'        exec ccode in environment'
p76
sI228
S'    except HTTP:'
p77
sI229
S'        raise'
p78
sI230
S'    except RestrictedError:'
p79
sI231
S'        # do not encapsulate (obfuscate) the original RestrictedError'
p80
sI222
S'    try:'
p81
sI223
S'        if isinstance(code, types.CodeType):'
p82
ssS'call'
p83
S'(code=r"response.write(\'<!DOCTYPE html>\\r\\n\\r\\n\\r\\n<!--[...ript>\\r\\n  </body>\\r\\n</html>\\r\\n\', escape=False)", environment={\'A\': <class \'gluon.html.A\'>, \'ANY_OF\': <class \'gluon.validators.ANY_OF\'>, \'ASSIGNJS\': <function ASSIGNJS>, \'AppConfig\': <function AppConfig>, \'Auth\': <class \'gluon.tools.Auth\'>, \'B\': <class \'gluon.html.B\'>, \'BEAUTIFY\': <class \'gluon.html.BEAUTIFY\'>, \'BODY\': <class \'gluon.html.BODY\'>, \'BR\': <class \'gluon.html.BR\'>, \'BUTTON\': <class \'gluon.html.BUTTON\'>, ...}, layer=r\'C:\\Users\\Kevin\\Desktop\\web2py\\applications\\P2P\\views\\default/poem.html\')'
p84
sS'func'
p85
S'restricted'
p86
sa(dp87
g62
S'C:\\Users\\Kevin\\Desktop\\web2py\\applications\\P2P\\views\\default\\poem.html'
p88
sg64
(dp89
sg70
I307
sg71
(dp90
I298
S"            response.write(' </div></a>', escape=False)"
p91
sI299
S'            pass'
p92
sI300
S'        pass'
p93
sI301
S"    response.write('</font></div></div></pre></div></center>\\r\\n\\r\\n', escape=False)"
p94
sI302
S"elif poem.category == 'Acrostic':"
p95
sI303
S"    response.write('\\r\\n<h3>The Word: ', escape=False)"
p96
sI304
S'    response.write(acrostic.word)'
p97
sI305
S'    response.write(\'</h3>\\r\\n<center>\\r\\n    <div style="width:750px;overflow:auto" class = "center"><pre><font size = "5"><div class = "left">\', escape=False)'
p98
sI306
S'    for line in lines:'
p99
sI307
S'        response.write(line.line.capitialize())'
p100
sI308
S"        response.write('</br>', escape=False)"
p101
sI309
S'        pass'
p102
sI310
S"    response.write('</div></font></pre></div></center>\\r\\n', escape=False)"
p103
sI311
S'    pass'
p104
sI312
S"response.write('\\r\\n<center>\\r\\n<h4>\\r\\n    Author: ', escape=False)"
p105
sI313
S'response.write(db.auth_user(poem.author).username)'
p106
sI314
S"response.write('\\r\\n    </br>\\r\\n    Contributors: ', escape=False)"
p107
sI315
S'if contributors:'
p108
sI316
S'    for person in contributors:'
p109
sI317
S'        response.write(db.auth_user(person.author).username)'
p110
ssg83
S'()'
p111
sg85
S'<module>'
p112
sasS'pyver'
p113
S'Python 2.7.9: C:\\Users\\Kevin\\Desktop\\web2py\\web2py.exe (prefix: )'
p114
sS'session'
p115
g57
(S's\x8f\n\x00\x00<div><table><tr><td style="font-weight:bold;vertical-align:top;">auth</td><td style="vertical-align:top;">:</td><td><div><table><tr><td style="font-weight:bold;vertical-align:top;">expiration</td><td style="vertical-align:top;">:</td><td><div>3600</div></td></tr><tr><td style="font-weight:bold;vertical-align:top;">hmac_key</td><td style="vertical-align:top;">:</td><td><div>b07cad15-f91d-4f47-bb6e-2a39d9573b61</div></td></tr><tr><td style="font-weight:bold;vertical-align:top;">last_visit</td><td style="vertical-align:top;">:</td><td><div>datetime.datetime(2016, 3, 5, 4, 29, 11, 247000)</div></td></tr><tr><td style="font-weight:bold;vertical-align:top;">remember_me</td><td style="vertical-align:top;">:</td><td><div>False</div></td></tr><tr><td style="font-weight:bold;vertical-align:top;">user</td><td style="vertical-align:top;">:</td><td><div><table><tr><td style="font-weight:bold;vertical-align:top;">email</td><td style="vertical-align:top;">:</td><td><div>default@email.com</div></td></tr><tr><td style="font-weight:bold;vertical-align:top;">first_name</td><td style="vertical-align:top;">:</td><td><div>default</div></td></tr><tr><td style="font-weight:bold;vertical-align:top;">id</td><td style="vertical-align:top;">:</td><td><div>4L</div></td></tr><tr><td style="font-weight:bold;vertical-align:top;">last_name</td><td style="vertical-align:top;">:</td><td><div>default</div></td></tr><tr><td style="font-weight:bold;vertical-align:top;">registration_id</td><td style="vertical-align:top;">:</td><td><div></div></td></tr><tr><td style="font-weight:bold;vertical-align:top;">registration_key</td><td style="vertical-align:top;">:</td><td><div></div></td></tr><tr><td style="font-weight:bold;vertical-align:top;">reset_password_key</td><td style="vertical-align:top;">:</td><td><div></div></td></tr><tr><td style="font-weight:bold;vertical-align:top;">username</td><td style="vertical-align:top;">:</td><td><div>default</div></td></tr></table></div></td></tr><tr><td style="font-weight:bold;vertical-align:top;">user_groups</td><td style="vertical-align:top;">:</td><td><div><table><tr><td style="font-weight:bold;vertical-align:top;">4</td><td style="vertical-align:top;">:</td><td><div>user_4</div></td></tr></table></div></td></tr></table></div></td></tr><tr><td style="font-weight:bold;vertical-align:top;">flash</td><td style="vertical-align:top;">:</td><td><div>None</div></td></tr><tr><td style="font-weight:bold;vertical-align:top;">last_orderby</td><td style="vertical-align:top;">:</td><td><div>None</div></td></tr><tr><td style="font-weight:bold;vertical-align:top;">last_query</td><td style="vertical-align:top;">:</td><td><div>db.rating.id&gt;0</div></td></tr></table></div>'
tRp116
sS'etype'
p117
S"<type 'exceptions.AttributeError'>"
p118
sS'date'
p119
S'Sat Mar 05 04:31:26 2016'
p120
sS'response'
p121
g57
(S's-*\x00\x00<div><table><tr><td style="font-weight:bold;vertical-align:top;">body</td><td style="vertical-align:top;">:</td><td><div>&lt;cStringIO.StringO object at 0x08BF30A0&gt;</div></td></tr><tr><td style="font-weight:bold;vertical-align:top;">cookies</td><td style="vertical-align:top;">:</td><td><div><table><tr><td style="font-weight:bold;vertical-align:top;">session_id_p2p</td><td style="vertical-align:top;">:</td><td><div>127.0.0.1-23d4f5a5-a46d-442c-a19e-a67bb988c73a<table><tr><td style="font-weight:bold;vertical-align:top;">comment</td><td style="vertical-align:top;">:</td><td><div></div></td></tr><tr><td style="font-weight:bold;vertical-align:top;">domain</td><td style="vertical-align:top;">:</td><td><div></div></td></tr><tr><td style="font-weight:bold;vertical-align:top;">expires</td><td style="vertical-align:top;">:</td><td><div></div></td></tr><tr><td style="font-weight:bold;vertical-align:top;">httponly</td><td style="vertical-align:top;">:</td><td><div></div></td></tr><tr><td style="font-weight:bold;vertical-align:top;">max-age</td><td style="vertical-align:top;">:</td><td><div></div></td></tr><tr><td style="font-weight:bold;vertical-align:top;">path</td><td style="vertical-align:top;">:</td><td><div>/</div></td></tr><tr><td style="font-weight:bold;vertical-align:top;">secure</td><td style="vertical-align:top;">:</td><td><div></div></td></tr><tr><td style="font-weight:bold;vertical-align:top;">version</td><td style="vertical-align:top;">:</td><td><div></div></td></tr></table></div></td></tr></table></div></td></tr><tr><td style="font-weight:bold;vertical-align:top;">delimiters</td><td style="vertical-align:top;">:</td><td><div><table><tr><td><div>{{</div></td></tr><tr><td><div>}}</div></td></tr></table></div></td></tr><tr><td style="font-weight:bold;vertical-align:top;">files</td><td style="vertical-align:top;">:</td><td><div><table><tr><td><div>/P2P/static/js/jquery.js</div></td></tr><tr><td><div>/P2P/static/css/calendar.css</div></td></tr><tr><td><div>/P2P/static/js/calendar.js</div></td></tr><tr><td><div>/P2P/static/js/web2py.js</div></td></tr></table></div></td></tr><tr><td style="font-weight:bold;vertical-align:top;">flash</td><td style="vertical-align:top;">:</td><td><div></div></td></tr><tr><td style="font-weight:bold;vertical-align:top;">form_label_separator</td><td style="vertical-align:top;">:</td><td><div></div></td></tr><tr><td style="font-weight:bold;vertical-align:top;">formstyle</td><td style="vertical-align:top;">:</td><td><div>bootstrap3_inline</div></td></tr><tr><td style="font-weight:bold;vertical-align:top;">generic_patterns</td><td style="vertical-align:top;">:</td><td><div><table><tr><td><div>*</div></td></tr></table></div></td></tr><tr><td style="font-weight:bold;vertical-align:top;">google_analytics_id</td><td style="vertical-align:top;">:</td><td><div>None</div></td></tr><tr><td style="font-weight:bold;vertical-align:top;">headers</td><td style="vertical-align:top;">:</td><td><div><table><tr><td style="font-weight:bold;vertical-align:top;">X-Powered-By</td><td style="vertical-align:top;">:</td><td><div>web2py</div></td></tr></table></div></td></tr><tr><td style="font-weight:bold;vertical-align:top;">logo</td><td style="vertical-align:top;">:</td><td><div><a class="navbar-brand" href="index" id="web2py-logo"><b>web<span>2</span>py</b>&trade;&nbsp;</a></div></td></tr><tr><td style="font-weight:bold;vertical-align:top;">menu</td><td style="vertical-align:top;">:</td><td><div><table><tr><td><div><table><tr><td><div>Home</div></td></tr><tr><td><div>False</div></td></tr><tr><td><div>/P2P/default/index</div></td></tr><tr><td><div><table></table></div></td></tr></table></div></td></tr><tr><td><div><table><tr><td><div>Browse Poems</div></td></tr><tr><td><div>False</div></td></tr><tr><td><div>/P2P/default/browse</div></td></tr><tr><td><div><table></table></div></td></tr></table></div></td></tr><tr><td><div><table><tr><td><div>Search Poems</div></td></tr><tr><td><div>False</div></td></tr><tr><td><div>/P2P/default/search</div></td></tr><tr><td><div><table></table></div></td></tr></table></div></td></tr><tr><td><div><table><tr><td><div>Profile</div></td></tr><tr><td><div>False</div></td></tr><tr><td><div>/P2P/default/profile</div></td></tr><tr><td><div><table></table></div></td></tr></table></div></td></tr><tr><td><div><table><tr><td><div>My Sites</div></td></tr><tr><td><div>False</div></td></tr><tr><td><div>/admin/default/site</div></td></tr></table></div></td></tr><tr><td><div><table><tr><td><div>This App</div></td></tr><tr><td><div>False</div></td></tr><tr><td><div>#</div></td></tr><tr><td><div><table><tr><td><div><table><tr><td><div>Design</div></td></tr><tr><td><div>False</div></td></tr><tr><td><div>/admin/default/design/P2P</div></td></tr></table></div></td></tr><tr><td><div><li class="divider"></li></div></td></tr><tr><td><div><table><tr><td><div>Controller</div></td></tr><tr><td><div>False</div></td></tr><tr><td><div>/admin/default/edit/P2P/controllers/default.py</div></td></tr></table></div></td></tr><tr><td><div><table><tr><td><div>View</div></td></tr><tr><td><div>False</div></td></tr><tr><td><div>/admin/default/edit/P2P/views/default/poem.html</div></td></tr></table></div></td></tr><tr><td><div><table><tr><td><div>DB Model</div></td></tr><tr><td><div>False</div></td></tr><tr><td><div>/admin/default/edit/P2P/models/db.py</div></td></tr></table></div></td></tr><tr><td><div><table><tr><td><div>Menu Model</div></td></tr><tr><td><div>False</div></td></tr><tr><td><div>/admin/default/edit/P2P/models/menu.py</div></td></tr></table></div></td></tr><tr><td><div><table><tr><td><div>Config.ini</div></td></tr><tr><td><div>False</div></td></tr><tr><td><div>/admin/default/edit/P2P/private/appconfig.ini</div></td></tr></table></div></td></tr><tr><td><div><table><tr><td><div>Layout</div></td></tr><tr><td><div>False</div></td></tr><tr><td><div>/admin/default/edit/P2P/views/layout.html</div></td></tr></table></div></td></tr><tr><td><div><table><tr><td><div>Stylesheet</div></td></tr><tr><td><div>False</div></td></tr><tr><td><div>/admin/default/edit/P2P/static/css/web2py-bootstrap3.css</div></td></tr></table></div></td></tr><tr><td><div><table><tr><td><div>Database</div></td></tr><tr><td><div>False</div></td></tr><tr><td><div>/P2P/appadmin/index</div></td></tr></table></div></td></tr><tr><td><div><table><tr><td><div>Errors</div></td></tr><tr><td><div>False</div></td></tr><tr><td><div>/admin/default/errors/P2P</div></td></tr></table></div></td></tr><tr><td><div><table><tr><td><div>About</div></td></tr><tr><td><div>False</div></td></tr><tr><td><div>/admin/default/about/P2P</div></td></tr></table></div></td></tr></table></div></td></tr></table></div></td></tr></table></div></td></tr><tr><td style="font-weight:bold;vertical-align:top;">meta</td><td style="vertical-align:top;">:</td><td><div><table><tr><td style="font-weight:bold;vertical-align:top;">author</td><td style="vertical-align:top;">:</td><td><div>Your Name &lt;you@example.com&gt;</div></td></tr><tr><td style="font-weight:bold;vertical-align:top;">description</td><td style="vertical-align:top;">:</td><td><div>a cool new app</div></td></tr><tr><td style="font-weight:bold;vertical-align:top;">generator</td><td style="vertical-align:top;">:</td><td><div>Web2py Web Framework</div></td></tr><tr><td style="font-weight:bold;vertical-align:top;">keywords</td><td style="vertical-align:top;">:</td><td><div>web2py, python, framework</div></td></tr></table></div></td></tr><tr><td style="font-weight:bold;vertical-align:top;">models_to_run</td><td style="vertical-align:top;">:</td><td><div><table><tr><td><div>^\\w+\\.py$</div></td></tr><tr><td><div>^default/\\w+\\.py$</div></td></tr><tr><td><div>^default/poem/\\w+\\.py$</div></td></tr></table></div></td></tr><tr><td style="font-weight:bold;vertical-align:top;">postprocessing</td><td style="vertical-align:top;">:</td><td><div><table></table></div></td></tr><tr><td style="font-weight:bold;vertical-align:top;">session_client</td><td style="vertical-align:top;">:</td><td><div>127.0.0.1</div></td></tr><tr><td style="font-weight:bold;vertical-align:top;">session_cookie_compression_level</td><td style="vertical-align:top;">:</td><td><div>None</div></td></tr><tr><td style="font-weight:bold;vertical-align:top;">session_cookie_expires</td><td style="vertical-align:top;">:</td><td><div>None</div></td></tr><tr><td style="font-weight:bold;vertical-align:top;">session_cookie_key</td><td style="vertical-align:top;">:</td><td><div>None</div></td></tr><tr><td style="font-weight:bold;vertical-align:top;">session_data_name</td><td style="vertical-align:top;">:</td><td><div>session_data_p2p</div></td></tr><tr><td style="font-weight:bold;vertical-align:top;">session_file</td><td style="vertical-align:top;">:</td><td><div>&lt;open file &#x27;C:\\\\Users\\\\Kevin\\\\Desktop\\\\web2py\\\\applications\\\\P2P\\\\sessions\\\\1f5\\\\1f3\\\\127.0.0.1-23d4f5a5-a46d-442c-a19e-a67bb988c73a&#x27;, mode &#x27;rb+&#x27; at 0x03EB6700&gt;</div></td></tr><tr><td style="font-weight:bold;vertical-align:top;">session_filename</td><td style="vertical-align:top;">:</td><td><div>C:\\Users\\Kevin\\Desktop\\web2py\\applications\\P2P\\sessions\\127.0.0.1-23d4f5a5-a46d-442c-a19e-a67bb988c73a</div></td></tr><tr><td style="font-weight:bold;vertical-align:top;">session_hash</td><td style="vertical-align:top;">:</td><td><div>b3bdb6fe78a4073f4d5370fce5c2585d</div></td></tr><tr><td style="font-weight:bold;vertical-align:top;">session_id</td><td style="vertical-align:top;">:</td><td><div>127.0.0.1-23d4f5a5-a46d-442c-a19e-a67bb988c73a</div></td></tr><tr><td style="font-weight:bold;vertical-align:top;">session_id_name</td><td style="vertical-align:top;">:</td><td><div>session_id_p2p</div></td></tr><tr><td style="font-weight:bold;vertical-align:top;">session_locked</td><td style="vertical-align:top;">:</td><td><div>True</div></td></tr><tr><td style="font-weight:bold;vertical-align:top;">session_masterapp</td><td style="vertical-align:top;">:</td><td><div>P2P</div></td></tr><tr><td style="font-weight:bold;vertical-align:top;">session_new</td><td style="vertical-align:top;">:</td><td><div>False</div></td></tr><tr><td style="font-weight:bold;vertical-align:top;">session_storage_type</td><td style="vertical-align:top;">:</td><td><div>file</div></td></tr><tr><td style="font-weight:bold;vertical-align:top;">status</td><td style="vertical-align:top;">:</td><td><div>200</div></td></tr><tr><td style="font-weight:bold;vertical-align:top;">subtitle</td><td style="vertical-align:top;">:</td><td><div></div></td></tr><tr><td style="font-weight:bold;vertical-align:top;">title</td><td style="vertical-align:top;">:</td><td><div>P2P</div></td></tr><tr><td style="font-weight:bold;vertical-align:top;">view</td><td style="vertical-align:top;">:</td><td><div>default/poem.html</div></td></tr></table></div>'
tRp122
sS'locals'
p123
(dp124
S'rating'
p125
S'<Rows (3)>'
p126
sS'Service'
p127
S"<class 'gluon.tools.Service'>"
p128
sS'OBJECT'
p129
S"<class 'gluon.html.OBJECT'>"
p130
sS'SQLDB'
p131
S"<class 'pydal.base.DAL'>"
p132
sg115
S"<Storage {'last_orderby': None, 'last_query': 'd...gin]': ['649b324e-6698-417f-ba03-257cb92ffaae']}>"
p133
sS'LINK'
p134
S"<class 'gluon.html.LINK'>"
p135
sS'BR'
p136
S"<class 'gluon.html.BR'>"
p137
sS'local_import'
p138
S'<function <lambda>>'
p139
sS'OPTGROUP'
p140
S"<class 'gluon.html.OPTGROUP'>"
p141
sS'__package__'
p142
S'None'
p143
sS'PRE'
p144
S"<class 'gluon.html.PRE'>"
p145
sS'IS_INT_IN_RANGE'
p146
S"<class 'gluon.validators.IS_INT_IN_RANGE'>"
p147
sS'left_sidebar_enabled'
p148
S'False'
p149
sS'IS_LOWER'
p150
S"<class 'gluon.validators.IS_LOWER'>"
p151
sS'IS_STRONG'
p152
S"<class 'gluon.validators.IS_STRONG'>"
p153
sS'cache'
p154
S'<gluon.cache.Cache object>'
p155
sS'IS_IN_DB'
p156
S"<class 'gluon.validators.IS_IN_DB'>"
p157
sS'TAG'
p158
S'<gluon.html.__TAG__ object>'
p159
sS'SQLField'
p160
S"<class 'pydal.objects.Field'>"
p161
sS'mail'
p162
S'<gluon.tools.Mail object>'
p163
sS'BODY'
p164
S"<class 'gluon.html.BODY'>"
p165
sS'IS_DATE_IN_RANGE'
p166
S"<class 'gluon.validators.IS_DATE_IN_RANGE'>"
p167
sS'votedInteresting'
p168
S'True'
p169
sS'IFRAME'
p170
S"<class 'gluon.html.IFRAME'>"
p171
sS'URL'
p172
S'<function URL>'
p173
sS'__file__'
p174
S"r'C:\\Users\\Kevin\\Desktop\\web2py\\applications\\P2P\\views\\default/poem.html'"
p175
sS'db'
p176
S'<DAL uri="sqlite://storage.sqlite">'
p177
sS'auth'
p178
S'<gluon.tools.Auth object>'
p179
sS'P'
S"<class 'gluon.html.P'>"
p180
sS'TFOOT'
p181
S"<class 'gluon.html.TFOOT'>"
p182
sS'XHTML'
p183
S"<class 'gluon.html.XHTML'>"
p184
sS'votedFunny'
p185
g169
sS'ON'
p186
g169
sS'OL'
p187
S"<class 'gluon.html.OL'>"
p188
sS'TEXTAREA'
p189
S"<class 'gluon.html.TEXTAREA'>"
p190
sS'MENU'
p191
S"<class 'gluon.html.MENU'>"
p192
sS'IS_IMAGE'
p193
S"<class 'gluon.validators.IS_IMAGE'>"
p194
sS'EM'
p195
S"<class 'gluon.html.EM'>"
p196
sS'CODE'
p197
S"<class 'gluon.html.CODE'>"
p198
sS'HTTP'
p199
S"<class 'gluon.http.HTTP'>"
p200
sS'HR'
p201
S"<class 'gluon.html.HR'>"
p202
sS'IS_DATETIME'
p203
S"<class 'gluon.validators.IS_DATETIME'>"
p204
sS'STYLE'
p205
S"<class 'gluon.html.STYLE'>"
p206
sS'LABEL'
p207
S"<class 'gluon.html.LABEL'>"
p208
sS'CLEANUP'
p209
S"<class 'gluon.validators.CLEANUP'>"
p210
sS'plugins'
p211
S'<gluon.tools.PluginManager object>'
p212
sS'SELECT'
p213
S"<class 'gluon.html.SELECT'>"
p214
sS'voteInteresting'
p215
S'1L'
p216
sS'CENTER'
p217
S"<class 'gluon.html.CENTER'>"
p218
sS'Auth'
p219
S"<class 'gluon.tools.Auth'>"
p220
sS'DEVELOPMENT_MENU'
p221
g169
sS'__builtins__'
p222
S"{'ArithmeticError': <type 'exceptions.ArithmeticError'>, 'AssertionError': <type 'exceptions.AssertionError'>, 'AttributeError': <type 'exceptions.AttributeError'>, 'BaseException': <type 'exceptions.BaseException'>, 'BufferError': <type 'exceptions.BufferError'>, 'BytesWarning': <type 'exceptions.BytesWarning'>, 'DeprecationWarning': <type 'exceptions.DeprecationWarning'>, 'EOFError': <type 'exceptions.EOFError'>, 'Ellipsis': Ellipsis, 'EnvironmentError': <type 'exceptions.EnvironmentError'>, ...}"
p223
sS'HTML'
p224
S"<class 'gluon.html.HTML'>"
p225
sS'SQLFORM'
p226
S"<class 'gluon.sqlhtml.SQLFORM'>"
p227
sS'LOAD'
p228
S'<function LOAD>'
p229
sS'redirect'
p230
S'<function redirect>'
p231
sS'FIELDSET'
p232
S"<class 'gluon.html.FIELDSET'>"
p233
sS'IS_EQUAL_TO'
p234
S"<class 'gluon.validators.IS_EQUAL_TO'>"
p235
sS'embed64'
p236
S'<function embed64>'
p237
sS'IS_LIST_OF'
p238
S"<class 'gluon.validators.IS_LIST_OF'>"
p239
sS'INPUT'
p240
S"<class 'gluon.html.INPUT'>"
p241
sS'EMBED'
p242
S"<class 'gluon.html.EMBED'>"
p243
sS'_'
S'<function _>'
p244
sS'myconf'
p245
S"{'forms': {'formstyle': 'bootstrap3_inline', 'se...'you@gmail.com', 'server': 'smtp.gmail.com:587'}}"
p246
sS'H2'
p247
S"<class 'gluon.html.H2'>"
p248
sS'H3'
p249
S"<class 'gluon.html.H3'>"
p250
sS'AppConfig'
p251
S'<function AppConfig>'
p252
sS'H1'
p253
S"<class 'gluon.html.H1'>"
p254
sS'H6'
p255
S"<class 'gluon.html.H6'>"
p256
sS'H4'
p257
S"<class 'gluon.html.H4'>"
p258
sS'H5'
p259
S"<class 'gluon.html.H5'>"
p260
sS'UL'
p261
S"<class 'gluon.html.UL'>"
p262
sS'IS_UPPER'
p263
S"<class 'gluon.validators.IS_UPPER'>"
p264
sS'xmlescape'
p265
S'<function xmlescape>'
p266
sS'IS_TIME'
p267
S"<class 'gluon.validators.IS_TIME'>"
p268
sS'OPTION'
p269
S"<class 'gluon.html.OPTION'>"
p270
sS'TITLE'
p271
S"<class 'gluon.html.TITLE'>"
p272
sS'CRYPT'
p273
S"<class 'gluon.validators.CRYPT'>"
p274
sS'IS_EMPTY_OR'
p275
S"<class 'gluon.validators.IS_EMPTY_OR'>"
p276
sS'MARKMIN'
p277
S"<class 'gluon.html.MARKMIN'>"
p278
sS'__name__'
p279
S"'__restricted__'"
p280
sS'STRONG'
p281
S"<class 'gluon.html.STRONG'>"
p282
sS'COL'
p283
S"<class 'gluon.html.COL'>"
p284
sS'mc1'
p285
S"'col-md-9'"
p286
sS'mc0'
p287
S"'col-md-12'"
p288
sS'poem'
p289
S"<Row {'abab': <Set (abab.poem_id = 67)>, 'rating...ted': datetime.datetime(2016, 3, 3, 19, 55, 35)}>"
p290
sS'service'
p291
S'<gluon.tools.Service object>'
p292
sS'SCRIPT'
p293
S"<class 'gluon.html.SCRIPT'>"
p294
sS'rates'
p295
S"<Row {'voteFunny': 0L, 'voteInteresting': 0L, 'a...: 4L, 'poem_id': 67L, 'voteCool': 1L, 'id': 15L}>"
p296
sS'TABLE'
p297
S"<class 'gluon.html.TABLE'>"
p298
sS'acrostic'
p299
S"<Row {'word': 'yui', 'poem_id': 67L, 'line_count': 3L, 'id': 5L}>"
p300
sS'IS_IPV4'
p301
S"<class 'gluon.validators.IS_IPV4'>"
p302
sS'IS_LENGTH'
p303
S"<class 'gluon.validators.IS_LENGTH'>"
p304
sS'IS_IPV6'
p305
S"<class 'gluon.validators.IS_IPV6'>"
p306
sS'XML'
p307
S"<class 'gluon.html.XML'>"
p308
sS'B'
S"<class 'gluon.html.B'>"
p309
sS'IMG'
p310
S"<class 'gluon.html.IMG'>"
p311
sS'SQLTABLE'
p312
S"<class 'gluon.sqlhtml.SQLTABLE'>"
p313
sS'IS_MATCH'
p314
S"<class 'gluon.validators.IS_MATCH'>"
p315
sS'IS_ALPHANUMERIC'
p316
S"<class 'gluon.validators.IS_ALPHANUMERIC'>"
p317
sS'line'
p318
S"<Row {'line_number': 1L, 'author': 4L, 'id': 83L...ted': datetime.datetime(2016, 3, 3, 19, 56, 58)}>"
p319
sS'votedCool'
p320
g169
sS'SPAN'
p321
S"<class 'gluon.html.SPAN'>"
p322
sS'IS_JSON'
p323
S"<class 'gluon.validators.IS_JSON'>"
p324
sS'IS_IPADDRESS'
p325
S"<class 'gluon.validators.IS_IPADDRESS'>"
p326
sS'IS_SLUG'
p327
S"<class 'gluon.validators.IS_SLUG'>"
p328
sS'BEAUTIFY'
p329
S"<class 'gluon.html.BEAUTIFY'>"
p330
sS'META'
p331
S"<class 'gluon.html.META'>"
p332
sS'BUTTON'
p333
S"<class 'gluon.html.BUTTON'>"
p334
sS'IS_DATE'
p335
S"<class 'gluon.validators.IS_DATE'>"
p336
sS'IS_EMAIL'
p337
S"<class 'gluon.validators.IS_EMAIL'>"
p338
sS'contributors'
p339
S'<Rows (1)>'
p340
sS'middle_column'
p341
S"'col-md-12'"
p342
sS'IS_NOT_EMPTY'
p343
S"<class 'gluon.validators.IS_NOT_EMPTY'>"
p344
sg56
S"<Storage {'_vars': None, 'function': 'poem', 'co...s\\\\Kevin\\\\Desktop\\\\web2py\\\\applications\\\\P2P\\\\'}>"
p345
sS'TBODY'
p346
S"<class 'gluon.html.TBODY'>"
p347
sS'CAT'
p348
S"<class 'gluon.html.CAT'>"
p349
sS'Field'
p350
S"<class 'pydal.objects.Field'>"
p351
sS'mc2'
p352
S"'col-md-6'"
p353
sS'IS_LIST_OF_EMAILS'
p354
S"<class 'gluon.validators.IS_LIST_OF_EMAILS'>"
p355
sS'DIV'
p356
S"<class 'gluon.html.DIV'>"
p357
sS'LEGEND'
p358
S"<class 'gluon.html.LEGEND'>"
p359
sS'COLGROUP'
p360
S"<class 'gluon.html.COLGROUP'>"
p361
sS'DAL'
p362
S"<class 'pydal.base.DAL'>"
p363
sS'ASSIGNJS'
p364
S'<function ASSIGNJS>'
p365
sS'TR'
p366
S"<class 'gluon.html.TR'>"
p367
sS'LI'
p368
S"<class 'gluon.html.LI'>"
p369
sS'right_sidebar_enabled'
p370
g149
sS'TH'
p371
S"<class 'gluon.html.TH'>"
p372
sS'TD'
p373
S"<class 'gluon.html.TD'>"
p374
sS'PluginManager'
p375
S"<class 'gluon.tools.PluginManager'>"
p376
sS'IS_URL'
p377
S"<class 'gluon.validators.IS_URL'>"
p378
sS'A'
S"<class 'gluon.html.A'>"
p379
sS'HEAD'
p380
S"<class 'gluon.html.HEAD'>"
p381
sS'IS_DATETIME_IN_RANGE'
p382
S"<class 'gluon.validators.IS_DATETIME_IN_RANGE'>"
p383
sS'FORM'
p384
S"<class 'gluon.html.FORM'>"
p385
sS'I'
S"<class 'gluon.html.I'>"
p386
sS'IS_NOT_IN_DB'
p387
S"<class 'gluon.validators.IS_NOT_IN_DB'>"
p388
sS'voteCool'
p389
S'1L'
p390
sg121
S"<Storage {'body': <cStringIO.StringO object at 0...da> at 0x08BE76F0>, 'view': 'default/poem.html'}>"
p391
sS'THEAD'
p392
S"<class 'gluon.html.THEAD'>"
p393
sS'ANY_OF'
p394
S"<class 'gluon.validators.ANY_OF'>"
p395
sS'voteFunny'
p396
S'1L'
p397
sS'IS_NULL_OR'
p398
S"<class 'gluon.validators.IS_EMPTY_OR'>"
p399
sS'IS_FLOAT_IN_RANGE'
p400
S"<class 'gluon.validators.IS_FLOAT_IN_RANGE'>"
p401
sg71
S'<Rows (3)>'
p402
sS'IS_EXPR'
p403
S"<class 'gluon.validators.IS_EXPR'>"
p404
sS'T'
S'<gluon.languages.translator object>'
p405
sS'IS_IN_SET'
p406
S"<class 'gluon.validators.IS_IN_SET'>"
p407
sS'IS_UPLOAD_FILENAME'
p408
S"<class 'gluon.validators.IS_UPLOAD_FILENAME'>"
p409
sS'TT'
p410
S"<class 'gluon.html.TT'>"
p411
sS'IS_DECIMAL_IN_RANGE'
p412
S"<class 'gluon.validators.IS_DECIMAL_IN_RANGE'>"
p413
sssS'traceback'
p414
S'Traceback (most recent call last):\n  File "C:\\Users\\Kevin\\Desktop\\web2py\\gluon\\restricted.py", line 227, in restricted\n    exec ccode in environment\n  File "C:\\Users\\Kevin\\Desktop\\web2py\\applications\\P2P\\views\\default/poem.html", line 307, in <module>\nAttributeError: \'str\' object has no attribute \'capitialize\'\n'
p415
s.