(dp1
S'output'
p2
S"<type 'exceptions.AttributeError'> 'NoneType' object has no attribute 'line'"
p3
sS'layer'
p4
S'C:\\Users\\Jason\\Downloads\\web2py\\applications\\P2P\\controllers/default.py'
p5
sS'code'
p6
S'# -*- coding: utf-8 -*-\n# this file is released under public domain and you can use without limitations\n\n#########################################################################\n## This is a sample controller\n## - index is the default action of any application\n## - user is required for authentication and authorization\n## - download is for downloading files uploaded in the db (does streaming)\n#########################################################################\nimport datetime\n\ndef index():\n    return locals()\n\ndef user():\n    return dict(form=auth())\n\ndef browse():\n    rows = db(db.poem).select()\n    return locals()\n\ndef search():\n    rows = db(db.poem).select()\n    searchKey = ""\n    searchType = \'Poems\'\n    form = FORM(\'Search: \',\n              INPUT(_name=\'search\'),\n              \'    Search By:  \',\n              INPUT(_type =\'radio\', _name = \'searchType\', _value = \'Poems\', _checked="checked"), \'  Poems \',\n              INPUT(_type =\'radio\', _name = \'searchType\', _value = \'Authors\'),\'  Authors  \',\n              INPUT(_type=\'submit\'))\n    if form.accepts(request,session):\n        searchKey = form.vars.search\n        searchType = form.vars.searchType\n\n    return locals()\n\ndef test():\n    import urllib\n    import urllib2\n    from gluon.contrib import simplejson\n    url = \'http://rhymebrain.com/talk\'\n    data = {}\n    data[\'function\'] = \'getRhymes\'\n    data[\'word\'] = \'fire\'\n    url_values = urllib.urlencode(data)\n    full_url = url + \'?\' + url_values\n    data = urllib2.urlopen(full_url)\n    result = data.read()\n    parsed_json = simplejson.loads(result)\n    return locals()\n\ndef poem():\n    # Redirect to poem browser if no argument for poem id\n    if not request.args(0): redirect(URL(\'browse\'))\n\n    # Load poem using the URL argument as poem id\n    poem = db.poem(request.args(0,cast=int))\n    rows = db(db.newline.poem_id == poem.id).select(orderby=db.newline.line_number)\n    contributors = db(db.newline.poem_id == poem.id).select(db.newline.author, groupby=db.newline.author)\n\n    return locals()\n\n@auth.requires_login()\ndef create():\n    form = SQLFORM(db.poem, fields=[\'title\', \'body\', \'permission\'], labels = {\'body\':\'First two lines\'}).process()\n    if form.accepted:\n        # Create a new insert into permission table if poem was created Private (give owner permission)\n        if form.vars.permission == \'Private\':\n            db.permission.insert(user_id = auth.user, poem_id = form.vars.id)\n        redirect(URL(\'browse\'))\n    return locals()\n\n@auth.requires_login()\ndef edit():\n    # Redirect to poem browser if no argument for poem id\n    if not request.args(0): redirect(URL(\'browse\'))\n\n    # Load poem using the URL argument as poem id\n    poem_id = request.args(0,cast=int)\n    poem = db.poem(poem_id)\n\n    # Redirect if current user is not owner of poem\n    if poem.author != auth.user.id:\n        session.flash = \'You are not the owner of this poem and cannot edit it\'\n        redirect(URL(\'poem\',args=poem.id))\n\n    # Create SQLFORM\n    form = SQLFORM(db.poem, record=poem, fields=[\'title\',\'body\']).process()\n    lines = db(db.newline.poem_id == poem_id).select(orderby=db.newline.line_number)\n    lines_form = []\n    for line in lines:\n        delete_form = FORM(\'Test line:\', line.line, INPUT(_type=\'submit\')).process(onvalidation=delete_line)\n        delete_form.vars.line = line\n        lines_form.append(delete_form)\n        #lines_form.append(SQLFORM(db.newline, record=line.id, showid=False, deletable=True, submit_button = \'Delete\', fields=[\'line\']).process())\n\n    #\n    if form.accepted: redirect(URL(\'browse\'))\n    forms = FORM(\'Username: \',\n              INPUT(_name=\'username\'),\n              INPUT(_type=\'submit\'))\n    if forms.accepts(request,session):\n        added = False\n        for users in db(db.auth_user).select():\n            if(users.username == forms.vars.username):\n                for permission in db(db.permission).select():\n                    if(permission.user_id == users.id and permission.poem_id == poem.id):\n                        response.flash = \'Already Added\'\n                    else:\n                        added = True\n                if(added == True):\n                    db.permission.insert(user_id = users.id , poem_id = poem.id)\n                    response.flash = \'Added\'\n    return locals()\n\ndef delete_line(form):\n    print \'okay I will delete the line\' + form.vars.line.line\n\n@auth.requires_login()\ndef add():\n    import urllib\n    import urllib2\n    from gluon.contrib import simplejson\n\n    # Redirect to poem browser if no argument for poem id\n    if not request.args(0): redirect(URL(\'browse\'))\n\n    # Load poem using the URL argument as poem id\n    poem = db.poem(request.args(0,cast=int))\n    rows = db(db.newline.poem_id == poem.id).select(orderby=db.newline.line_number)\n\n    # Check if poem is private and if current user has proper permissions, redirect if no permission\n    if poem.permission == \'Private\':\n        print \'private\'\n        print db(db.permission.poem_id == poem.id).select().first().user_id\n        print auth.user.id\n        if not db((db.permission.poem_id == poem.id) & (db.permission.user_id == auth.user_id)).select():\n            session.flash = \'You do not have permission to add to this poem\'\n            redirect(URL(\'poem\', args=poem.id))\n\n    # Check and redirect if another user is currently trying to add a line for this poem\n    #if poem.user_editing:\n    #    edit_timestamp = poem.edit_timestamp\n    #    minutes_elapsed = (datetime.datetime.now() - edit_timestamp).total_seconds() / 60\n    #    if minutes_elapsed < 5.0:\n    #        session.flash = \'A user is currently adding a line!\'\n    #        redirect(URL(\'poem\', args=poem.id))\n\n    # This user can now access the page and start adding a line, set user_editing to True and edit_timestamp\n    poem.update_record(user_editing = True, edit_timestamp = datetime.datetime.now())\n\n    # Grab last word in the second to last line to rhyme by default (for ABAB rhyme scheme)\n    rhyme_word = \'\'\n    if poem.line_count == 2:\n        rhyme_word = poem.body.splitlines()[0].split(\' \')[-1]\n    elif poem.line_count == 3:\n        rhyme_word = poem.body.splitlines()[1].split(\' \')[-1]\n    else:\n        rhyme_line = db((db.newline.poem_id == poem.id) & (db.newline.line_number == poem.line_count-1)).select().first()\n        rhyme_word = rhyme_line.line.split(\' \')[-1]\n\n    #Get use the rhymebrain API\n    url = \'http://rhymebrain.com/talk\'\n    data = {}\n    data[\'function\'] = \'getRhymes\'\n    data[\'word\'] = rhyme_word\n    url_values = urllib.urlencode(data)\n    full_url = url + \'?\' + url_values\n    data = urllib2.urlopen(full_url)\n    result = data.read()\n    parsed_json = simplejson.loads(result)\n\n    # Create SQLFORM for the user to add a single line as a String\n    form = SQLFORM(db.newline, fields=[\'line\'])\n    form.vars.poem_id = poem.id\n    form.vars.line_number = poem.line_count + 1\n\n    form.process()\n    if form.accepted:\n        poem.update_record(line_count=poem.line_count + 1, user_editing = False)\n        redirect(URL(\'poem\', args=poem.id))\n    return locals()\n\n@auth.requires_login()\ndef profile():\n    user = auth.user\n    poem = db.poem\n    poems_owned = db(db.poem.author == user.id).select()\n    poems_contributed = db((db.newline.author == user.id) & (db.poem.id == db.newline.poem_id)).select(groupby=db.poem.id)\n    return locals()\n\nresponse._vars=response._caller(edit)\n'
p7
sS'snapshot'
p8
(dp9
S'exception'
p10
(dp11
S'__hash__'
p12
S"<method-wrapper '__hash__' of exceptions.AttributeError object>"
p13
sS'__setattr__'
p14
S"<method-wrapper '__setattr__' of exceptions.AttributeError object>"
p15
sS'__reduce_ex__'
p16
S'<built-in method __reduce_ex__ of exceptions.AttributeError object>'
p17
sS'__getslice__'
p18
S"<method-wrapper '__getslice__' of exceptions.AttributeError object>"
p19
sS'__getitem__'
p20
S"<method-wrapper '__getitem__' of exceptions.AttributeError object>"
p21
sS'__setstate__'
p22
S'<built-in method __setstate__ of exceptions.AttributeError object>'
p23
sS'__reduce__'
p24
S'<built-in method __reduce__ of exceptions.AttributeError object>'
p25
sS'__str__'
p26
S"<method-wrapper '__str__' of exceptions.AttributeError object>"
p27
sS'__format__'
p28
S'<built-in method __format__ of exceptions.AttributeError object>'
p29
sS'__getattribute__'
p30
S"<method-wrapper '__getattribute__' of exceptions.AttributeError object>"
p31
sS'__class__'
p32
S"<type 'exceptions.AttributeError'>"
p33
sS'__unicode__'
p34
S'<built-in method __unicode__ of exceptions.AttributeError object>'
p35
sS'__delattr__'
p36
S"<method-wrapper '__delattr__' of exceptions.AttributeError object>"
p37
sS'__subclasshook__'
p38
S'<built-in method __subclasshook__ of type object>'
p39
sS'__repr__'
p40
S"<method-wrapper '__repr__' of exceptions.AttributeError object>"
p41
sS'args'
p42
S'("\'NoneType\' object has no attribute \'line\'",)'
p43
sS'__dict__'
p44
S'{}'
p45
sS'__sizeof__'
p46
S'<built-in method __sizeof__ of exceptions.AttributeError object>'
p47
sS'__doc__'
p48
S"'Attribute not found.'"
p49
sS'__init__'
p50
S"<method-wrapper '__init__' of exceptions.AttributeError object>"
p51
sS'__new__'
p52
S'<built-in method __new__ of type object>'
p53
ssS'evalue'
p54
S"'NoneType' object has no attribute 'line'"
p55
sS'request'
p56
cgluon.html
XML_unpickle
p57
(S'sQs\x00\x00<div><table><tr><td style="font-weight:bold;vertical-align:top;">ajax</td><td style="vertical-align:top;">:</td><td><div>False</div></td></tr><tr><td style="font-weight:bold;vertical-align:top;">application</td><td style="vertical-align:top;">:</td><td><div>P2P</div></td></tr><tr><td style="font-weight:bold;vertical-align:top;">args</td><td style="vertical-align:top;">:</td><td><div><table><tr><td><div>21</div></td></tr></table></div></td></tr><tr><td style="font-weight:bold;vertical-align:top;">cid</td><td style="vertical-align:top;">:</td><td><div>None</div></td></tr><tr><td style="font-weight:bold;vertical-align:top;">client</td><td style="vertical-align:top;">:</td><td><div>127.0.0.1</div></td></tr><tr><td style="font-weight:bold;vertical-align:top;">controller</td><td style="vertical-align:top;">:</td><td><div>default</div></td></tr><tr><td style="font-weight:bold;vertical-align:top;">cookies</td><td style="vertical-align:top;">:</td><td><div><table><tr><td style="font-weight:bold;vertical-align:top;">session_id_admin</td><td style="vertical-align:top;">:</td><td><div>127.0.0.1-8b7e0157-f440-4cc7-ae21-e951e3b9d4da<table><tr><td style="font-weight:bold;vertical-align:top;">comment</td><td style="vertical-align:top;">:</td><td><div></div></td></tr><tr><td style="font-weight:bold;vertical-align:top;">domain</td><td style="vertical-align:top;">:</td><td><div></div></td></tr><tr><td style="font-weight:bold;vertical-align:top;">expires</td><td style="vertical-align:top;">:</td><td><div></div></td></tr><tr><td style="font-weight:bold;vertical-align:top;">httponly</td><td style="vertical-align:top;">:</td><td><div></div></td></tr><tr><td style="font-weight:bold;vertical-align:top;">max-age</td><td style="vertical-align:top;">:</td><td><div></div></td></tr><tr><td style="font-weight:bold;vertical-align:top;">path</td><td style="vertical-align:top;">:</td><td><div></div></td></tr><tr><td style="font-weight:bold;vertical-align:top;">secure</td><td style="vertical-align:top;">:</td><td><div></div></td></tr><tr><td style="font-weight:bold;vertical-align:top;">version</td><td style="vertical-align:top;">:</td><td><div></div></td></tr></table></div></td></tr><tr><td style="font-weight:bold;vertical-align:top;">session_id_hw1</td><td style="vertical-align:top;">:</td><td><div>127.0.0.1-2d7c5755-fc50-4f97-b621-a26ebe2c3b5e<table><tr><td style="font-weight:bold;vertical-align:top;">comment</td><td style="vertical-align:top;">:</td><td><div></div></td></tr><tr><td style="font-weight:bold;vertical-align:top;">domain</td><td style="vertical-align:top;">:</td><td><div></div></td></tr><tr><td style="font-weight:bold;vertical-align:top;">expires</td><td style="vertical-align:top;">:</td><td><div></div></td></tr><tr><td style="font-weight:bold;vertical-align:top;">httponly</td><td style="vertical-align:top;">:</td><td><div></div></td></tr><tr><td style="font-weight:bold;vertical-align:top;">max-age</td><td style="vertical-align:top;">:</td><td><div></div></td></tr><tr><td style="font-weight:bold;vertical-align:top;">path</td><td style="vertical-align:top;">:</td><td><div></div></td></tr><tr><td style="font-weight:bold;vertical-align:top;">secure</td><td style="vertical-align:top;">:</td><td><div></div></td></tr><tr><td style="font-weight:bold;vertical-align:top;">version</td><td style="vertical-align:top;">:</td><td><div></div></td></tr></table></div></td></tr><tr><td style="font-weight:bold;vertical-align:top;">session_id_p2p</td><td style="vertical-align:top;">:</td><td><div>127.0.0.1-3ac7673d-e0d0-491f-b01d-445ea08c6c9c<table><tr><td style="font-weight:bold;vertical-align:top;">comment</td><td style="vertical-align:top;">:</td><td><div></div></td></tr><tr><td style="font-weight:bold;vertical-align:top;">domain</td><td style="vertical-align:top;">:</td><td><div></div></td></tr><tr><td style="font-weight:bold;vertical-align:top;">expires</td><td style="vertical-align:top;">:</td><td><div></div></td></tr><tr><td style="font-weight:bold;vertical-align:top;">httponly</td><td style="vertical-align:top;">:</td><td><div></div></td></tr><tr><td style="font-weight:bold;vertical-align:top;">max-age</td><td style="vertical-align:top;">:</td><td><div></div></td></tr><tr><td style="font-weight:bold;vertical-align:top;">path</td><td style="vertical-align:top;">:</td><td><div></div></td></tr><tr><td style="font-weight:bold;vertical-align:top;">secure</td><td style="vertical-align:top;">:</td><td><div></div></td></tr><tr><td style="font-weight:bold;vertical-align:top;">version</td><td style="vertical-align:top;">:</td><td><div></div></td></tr></table></div></td></tr><tr><td style="font-weight:bold;vertical-align:top;">session_id_template_test</td><td style="vertical-align:top;">:</td><td><div>127.0.0.1-357e18aa-ad0f-4676-ba82-21ae39d37152<table><tr><td style="font-weight:bold;vertical-align:top;">comment</td><td style="vertical-align:top;">:</td><td><div></div></td></tr><tr><td style="font-weight:bold;vertical-align:top;">domain</td><td style="vertical-align:top;">:</td><td><div></div></td></tr><tr><td style="font-weight:bold;vertical-align:top;">expires</td><td style="vertical-align:top;">:</td><td><div></div></td></tr><tr><td style="font-weight:bold;vertical-align:top;">httponly</td><td style="vertical-align:top;">:</td><td><div></div></td></tr><tr><td style="font-weight:bold;vertical-align:top;">max-age</td><td style="vertical-align:top;">:</td><td><div></div></td></tr><tr><td style="font-weight:bold;vertical-align:top;">path</td><td style="vertical-align:top;">:</td><td><div></div></td></tr><tr><td style="font-weight:bold;vertical-align:top;">secure</td><td style="vertical-align:top;">:</td><td><div></div></td></tr><tr><td style="font-weight:bold;vertical-align:top;">version</td><td style="vertical-align:top;">:</td><td><div></div></td></tr></table></div></td></tr><tr><td style="font-weight:bold;vertical-align:top;">session_id_welcome</td><td style="vertical-align:top;">:</td><td><div>127.0.0.1-ad0c8e58-26fa-4bda-8030-c02324316696<table><tr><td style="font-weight:bold;vertical-align:top;">comment</td><td style="vertical-align:top;">:</td><td><div></div></td></tr><tr><td style="font-weight:bold;vertical-align:top;">domain</td><td style="vertical-align:top;">:</td><td><div></div></td></tr><tr><td style="font-weight:bold;vertical-align:top;">expires</td><td style="vertical-align:top;">:</td><td><div></div></td></tr><tr><td style="font-weight:bold;vertical-align:top;">httponly</td><td style="vertical-align:top;">:</td><td><div></div></td></tr><tr><td style="font-weight:bold;vertical-align:top;">max-age</td><td style="vertical-align:top;">:</td><td><div></div></td></tr><tr><td style="font-weight:bold;vertical-align:top;">path</td><td style="vertical-align:top;">:</td><td><div></div></td></tr><tr><td style="font-weight:bold;vertical-align:top;">secure</td><td style="vertical-align:top;">:</td><td><div></div></td></tr><tr><td style="font-weight:bold;vertical-align:top;">version</td><td style="vertical-align:top;">:</td><td><div></div></td></tr></table></div></td></tr></table></div></td></tr><tr><td style="font-weight:bold;vertical-align:top;">env</td><td style="vertical-align:top;">:</td><td><div><table><tr><td style="font-weight:bold;vertical-align:top;">CONTENT_LENGTH</td><td style="vertical-align:top;">:</td><td><div>278</div></td></tr><tr><td style="font-weight:bold;vertical-align:top;">CONTENT_TYPE</td><td style="vertical-align:top;">:</td><td><div>multipart/form-data; boundary=----WebKitFormBoundaryo4bbjpBxsBReftnx</div></td></tr><tr><td style="font-weight:bold;vertical-align:top;">HTTP_ACCEPT</td><td style="vertical-align:top;">:</td><td><div>text/html,application/xhtml+xml,application/xml;q=0.9,image/webp,*/*;q=0.8</div></td></tr><tr><td style="font-weight:bold;vertical-align:top;">HTTP_ACCEPT_ENCODING</td><td style="vertical-align:top;">:</td><td><div>gzip, deflate</div></td></tr><tr><td style="font-weight:bold;vertical-align:top;">HTTP_ACCEPT_LANGUAGE</td><td style="vertical-align:top;">:</td><td><div>en-US,en;q=0.8</div></td></tr><tr><td style="font-weight:bold;vertical-align:top;">HTTP_CACHE_CONTROL</td><td style="vertical-align:top;">:</td><td><div>max-age=0</div></td></tr><tr><td style="font-weight:bold;vertical-align:top;">HTTP_CONNECTION</td><td style="vertical-align:top;">:</td><td><div>keep-alive</div></td></tr><tr><td style="font-weight:bold;vertical-align:top;">HTTP_CONTENT_LENGTH</td><td style="vertical-align:top;">:</td><td><div>278</div></td></tr><tr><td style="font-weight:bold;vertical-align:top;">HTTP_CONTENT_TYPE</td><td style="vertical-align:top;">:</td><td><div>multipart/form-data; boundary=----WebKitFormBoundaryo4bbjpBxsBReftnx</div></td></tr><tr><td style="font-weight:bold;vertical-align:top;">HTTP_COOKIE</td><td style="vertical-align:top;">:</td><td><div>session_id_template_test=127.0.0.1-357e18aa-ad0f-4676-ba82-21ae39d37152; session_id_hw1=127.0.0.1-2d7c5755-fc50-4f97-b621-a26ebe2c3b5e; session_id_welcome=127.0.0.1-ad0c8e58-26fa-4bda-8030-c02324316696; session_id_admin=127.0.0.1-8b7e0157-f440-4cc7-ae21-e951e3b9d4da; session_id_p2p=127.0.0.1-3ac7673d-e0d0-491f-b01d-445ea08c6c9c</div></td></tr><tr><td style="font-weight:bold;vertical-align:top;">HTTP_HOST</td><td style="vertical-align:top;">:</td><td><div>127.0.0.1:8000</div></td></tr><tr><td style="font-weight:bold;vertical-align:top;">HTTP_ORIGIN</td><td style="vertical-align:top;">:</td><td><div>http://127.0.0.1:8000</div></td></tr><tr><td style="font-weight:bold;vertical-align:top;">HTTP_REFERER</td><td style="vertical-align:top;">:</td><td><div>http://127.0.0.1:8000/P2P/default/edit/21</div></td></tr><tr><td style="font-weight:bold;vertical-align:top;">HTTP_UPGRADE_INSECURE_REQUESTS</td><td style="vertical-align:top;">:</td><td><div>1</div></td></tr><tr><td style="font-weight:bold;vertical-align:top;">HTTP_USER_AGENT</td><td style="vertical-align:top;">:</td><td><div>Mozilla/5.0 (Windows NT 6.1; WOW64) AppleWebKit/537.36 (KHTML, like Gecko) Chrome/48.0.2564.109 Safari/537.36</div></td></tr><tr><td style="font-weight:bold;vertical-align:top;">PATH_INFO</td><td style="vertical-align:top;">:</td><td><div>/P2P/default/edit/21</div></td></tr><tr><td style="font-weight:bold;vertical-align:top;">QUERY_STRING</td><td style="vertical-align:top;">:</td><td><div></div></td></tr><tr><td style="font-weight:bold;vertical-align:top;">REMOTE_ADDR</td><td style="vertical-align:top;">:</td><td><div>127.0.0.1</div></td></tr><tr><td style="font-weight:bold;vertical-align:top;">REMOTE_PORT</td><td style="vertical-align:top;">:</td><td><div>60798</div></td></tr><tr><td style="font-weight:bold;vertical-align:top;">REQUEST_METHOD</td><td style="vertical-align:top;">:</td><td><div>POST</div></td></tr><tr><td style="font-weight:bold;vertical-align:top;">SCRIPT_NAME</td><td style="vertical-align:top;">:</td><td><div></div></td></tr><tr><td style="font-weight:bold;vertical-align:top;">SERVER_NAME</td><td style="vertical-align:top;">:</td><td><div>Witidek</div></td></tr><tr><td style="font-weight:bold;vertical-align:top;">SERVER_PORT</td><td style="vertical-align:top;">:</td><td><div>8000</div></td></tr><tr><td style="font-weight:bold;vertical-align:top;">SERVER_PROTOCOL</td><td style="vertical-align:top;">:</td><td><div>HTTP/1.1</div></td></tr><tr><td style="font-weight:bold;vertical-align:top;">SERVER_SOFTWARE</td><td style="vertical-align:top;">:</td><td><div>Rocket 1.2.6</div></td></tr><tr><td style="font-weight:bold;vertical-align:top;">app_folders</td><td style="vertical-align:top;">:</td><td><div>set([&#x27;C:\\\\Users\\\\Jason\\\\Downloads\\\\web2py\\\\applications\\\\welcome\\\\&#x27;, &#x27;C:\\\\Users\\\\Jason\\\\Downloads\\\\web2py\\\\applications\\\\admin\\\\&#x27;, &#x27;C:\\\\Users\\\\Jason\\\\Downloads\\\\web2py\\\\applications\\\\P2P\\\\&#x27;])</div></td></tr><tr><td style="font-weight:bold;vertical-align:top;">applications_parent</td><td style="vertical-align:top;">:</td><td><div>C:\\Users\\Jason\\Downloads\\web2py</div></td></tr><tr><td style="font-weight:bold;vertical-align:top;">cmd_args</td><td style="vertical-align:top;">:</td><td><div><table></table></div></td></tr><tr><td style="font-weight:bold;vertical-align:top;">cmd_options</td><td style="vertical-align:top;">:</td><td><div>&lt;Values at 0x2edf6e8: {&#x27;verbose&#x27;: False, &#x27;ip&#x27;: &#x27;127.0.0.1&#x27;, &#x27;debuglevel&#x27;: 30, &#x27;with_scheduler&#x27;: False, &#x27;ips&#x27;: [&#x27;fe80::c4d9:80a7:6927:91dc%20&#x27;, &#x27;192.168.1.21&#x27;, &#x27;fe80::ad25:41ef:cc7a:b5f4%16&#x27;, &#x27;fe80::7910:6b7f:64e5:6055%24&#x27;, &#x27;fe80::80aa:bcc3:c776:b57a%23&#x27;, &#x27;192.168.56.1&#x27;, &#x27;192.168.109.1&#x27;, &#x27;192.168.158.1&#x27;], &#x27;shutdown_timeout&#x27;: 5, &#x27;taskbar&#x27;: False, &#x27;with_coverage&#x27;: False, &#x27;scheduler_groups&#x27;: None, &#x27;port&#x27;: 8000, &#x27;maxthreads&#x27;: None, &#x27;softcron&#x27;: False, &#x27;server_name&#x27;: &#x27;Witidek&#x27;, &#x27;bpython&#x27;: False, &#x27;nogui&#x27;: False, &#x27;pid_filename&#x27;: &#x27;httpserver.pid&#x27;, &#x27;print_errors&#x27;: False, &#x27;extcron&#x27;: False, &#x27;runcron&#x27;: False, &#x27;run_system_tests&#x27;: False, &#x27;test&#x27;: None, &#x27;folder&#x27;: &#x27;C:\\\\Users\\\\Jason\\\\Downloads\\\\web2py&#x27;, &#x27;config&#x27;: &#x27;&#x27;, &#x27;minthreads&#x27;: None, &#x27;shell&#x27;: None, &#x27;run&#x27;: &#x27;&#x27;, &#x27;log_filename&#x27;: &#x27;httpserver.log&#x27;, &#x27;profiler_dir&#x27;: None, &#x27;args&#x27;: [&#x27;&#x27;], &#x27;socket_timeout&#x27;: 5, &#x27;ssl_ca_certificate&#x27;: None, &#x27;scheduler&#x27;: None, &#x27;interfaces&#x27;: None, &#x27;ssl_private_key&#x27;: &#x27;&#x27;, &#x27;gae&#x27;: None, &#x27;password&#x27;: &#x27;&lt;ask&gt;&#x27;, &#x27;request_queue_size&#x27;: 5, &#x27;ssl_certificate&#x27;: &#x27;&#x27;, &#x27;cronjob&#x27;: False, &#x27;numthreads&#x27;: None, &#x27;quiet&#x27;: False, &#x27;import_models&#x27;: False, &#x27;timeout&#x27;: 10, &#x27;plain&#x27;: False, &#x27;nobanner&#x27;: False}&gt;</div></td></tr><tr><td style="font-weight:bold;vertical-align:top;">content_length</td><td style="vertical-align:top;">:</td><td><div>278</div></td></tr><tr><td style="font-weight:bold;vertical-align:top;">content_type</td><td style="vertical-align:top;">:</td><td><div>multipart/form-data; boundary=----WebKitFormBoundaryo4bbjpBxsBReftnx</div></td></tr><tr><td style="font-weight:bold;vertical-align:top;">db_sessions</td><td style="vertical-align:top;">:</td><td><div>set([])</div></td></tr><tr><td style="font-weight:bold;vertical-align:top;">debugging</td><td style="vertical-align:top;">:</td><td><div>True</div></td></tr><tr><td style="font-weight:bold;vertical-align:top;">gluon_parent</td><td style="vertical-align:top;">:</td><td><div>C:\\Users\\Jason\\Downloads\\web2py</div></td></tr><tr><td style="font-weight:bold;vertical-align:top;">http_accept</td><td style="vertical-align:top;">:</td><td><div>text/html,application/xhtml+xml,application/xml;q=0.9,image/webp,*/*;q=0.8</div></td></tr><tr><td style="font-weight:bold;vertical-align:top;">http_accept_encoding</td><td style="vertical-align:top;">:</td><td><div>gzip, deflate</div></td></tr><tr><td style="font-weight:bold;vertical-align:top;">http_accept_language</td><td style="vertical-align:top;">:</td><td><div>en-US,en;q=0.8</div></td></tr><tr><td style="font-weight:bold;vertical-align:top;">http_cache_control</td><td style="vertical-align:top;">:</td><td><div>max-age=0</div></td></tr><tr><td style="font-weight:bold;vertical-align:top;">http_connection</td><td style="vertical-align:top;">:</td><td><div>keep-alive</div></td></tr><tr><td style="font-weight:bold;vertical-align:top;">http_content_length</td><td style="vertical-align:top;">:</td><td><div>278</div></td></tr><tr><td style="font-weight:bold;vertical-align:top;">http_content_type</td><td style="vertical-align:top;">:</td><td><div>multipart/form-data; boundary=----WebKitFormBoundaryo4bbjpBxsBReftnx</div></td></tr><tr><td style="font-weight:bold;vertical-align:top;">http_cookie</td><td style="vertical-align:top;">:</td><td><div>session_id_template_test=127.0.0.1-357e18aa-ad0f-4676-ba82-21ae39d37152; session_id_hw1=127.0.0.1-2d7c5755-fc50-4f97-b621-a26ebe2c3b5e; session_id_welcome=127.0.0.1-ad0c8e58-26fa-4bda-8030-c02324316696; session_id_admin=127.0.0.1-8b7e0157-f440-4cc7-ae21-e951e3b9d4da; session_id_p2p=127.0.0.1-3ac7673d-e0d0-491f-b01d-445ea08c6c9c</div></td></tr><tr><td style="font-weight:bold;vertical-align:top;">http_host</td><td style="vertical-align:top;">:</td><td><div>127.0.0.1:8000</div></td></tr><tr><td style="font-weight:bold;vertical-align:top;">http_origin</td><td style="vertical-align:top;">:</td><td><div>http://127.0.0.1:8000</div></td></tr><tr><td style="font-weight:bold;vertical-align:top;">http_referer</td><td style="vertical-align:top;">:</td><td><div>http://127.0.0.1:8000/P2P/default/edit/21</div></td></tr><tr><td style="font-weight:bold;vertical-align:top;">http_upgrade_insecure_requests</td><td style="vertical-align:top;">:</td><td><div>1</div></td></tr><tr><td style="font-weight:bold;vertical-align:top;">http_user_agent</td><td style="vertical-align:top;">:</td><td><div>Mozilla/5.0 (Windows NT 6.1; WOW64) AppleWebKit/537.36 (KHTML, like Gecko) Chrome/48.0.2564.109 Safari/537.36</div></td></tr><tr><td style="font-weight:bold;vertical-align:top;">is_jython</td><td style="vertical-align:top;">:</td><td><div>False</div></td></tr><tr><td style="font-weight:bold;vertical-align:top;">is_pypy</td><td style="vertical-align:top;">:</td><td><div>False</div></td></tr><tr><td style="font-weight:bold;vertical-align:top;">is_source</td><td style="vertical-align:top;">:</td><td><div>False</div></td></tr><tr><td style="font-weight:bold;vertical-align:top;">local_hosts</td><td style="vertical-align:top;">:</td><td><div><table><tr><td><div>fe80::c4d9:80a7:6927:91dc%20</div></td></tr><tr><td><div>192.168.1.21</div></td></tr><tr><td><div>fe80::ad25:41ef:cc7a:b5f4%16</div></td></tr><tr><td><div>fe80::7910:6b7f:64e5:6055%24</div></td></tr><tr><td><div>::ffff:127.0.0.1</div></td></tr><tr><td><div>::1</div></td></tr><tr><td><div>fe80::80aa:bcc3:c776:b57a%23</div></td></tr><tr><td><div>Witidek</div></td></tr><tr><td><div>192.168.158.1</div></td></tr><tr><td><div>192.168.109.1</div></td></tr><tr><td><div>127.0.0.1</div></td></tr><tr><td><div>192.168.56.1</div></td></tr></table></div></td></tr><tr><td style="font-weight:bold;vertical-align:top;">path_info</td><td style="vertical-align:top;">:</td><td><div>/P2P/default/edit/21</div></td></tr><tr><td style="font-weight:bold;vertical-align:top;">query_string</td><td style="vertical-align:top;">:</td><td><div></div></td></tr><tr><td style="font-weight:bold;vertical-align:top;">remote_addr</td><td style="vertical-align:top;">:</td><td><div>127.0.0.1</div></td></tr><tr><td style="font-weight:bold;vertical-align:top;">remote_port</td><td style="vertical-align:top;">:</td><td><div>60798</div></td></tr><tr><td style="font-weight:bold;vertical-align:top;">request_method</td><td style="vertical-align:top;">:</td><td><div>POST</div></td></tr><tr><td style="font-weight:bold;vertical-align:top;">request_uri</td><td style="vertical-align:top;">:</td><td><div>/P2P/default/edit/21</div></td></tr><tr><td style="font-weight:bold;vertical-align:top;">script_name</td><td style="vertical-align:top;">:</td><td><div></div></td></tr><tr><td style="font-weight:bold;vertical-align:top;">server_name</td><td style="vertical-align:top;">:</td><td><div>Witidek</div></td></tr><tr><td style="font-weight:bold;vertical-align:top;">server_port</td><td style="vertical-align:top;">:</td><td><div>8000</div></td></tr><tr><td style="font-weight:bold;vertical-align:top;">server_protocol</td><td style="vertical-align:top;">:</td><td><div>HTTP/1.1</div></td></tr><tr><td style="font-weight:bold;vertical-align:top;">server_software</td><td style="vertical-align:top;">:</td><td><div>Rocket 1.2.6</div></td></tr><tr><td style="font-weight:bold;vertical-align:top;">web2py_path</td><td style="vertical-align:top;">:</td><td><div>C:\\Users\\Jason\\Downloads\\web2py</div></td></tr><tr><td style="font-weight:bold;vertical-align:top;">web2py_version</td><td style="vertical-align:top;">:</td><td><div>2.13.4-stable+timestamp.2015.12.26.04.59.39</div></td></tr><tr><td style="font-weight:bold;vertical-align:top;">wsgi.errors</td><td style="vertical-align:top;">:</td><td><div>&lt;open file &#x27;&lt;stderr&gt;&#x27;, mode &#x27;w&#x27; at 0x01D5D0D0&gt;</div></td></tr><tr><td style="font-weight:bold;vertical-align:top;">wsgi.file_wrapper</td><td style="vertical-align:top;">:</td><td><div>&lt;class wsgiref.util.FileWrapper at 0x03963228&gt;</div></td></tr><tr><td style="font-weight:bold;vertical-align:top;">wsgi.input</td><td style="vertical-align:top;">:</td><td><div>&lt;socket._fileobject object at 0x0437DD30&gt;</div></td></tr><tr><td style="font-weight:bold;vertical-align:top;">wsgi.multiprocess</td><td style="vertical-align:top;">:</td><td><div>False</div></td></tr><tr><td style="font-weight:bold;vertical-align:top;">wsgi.multithread</td><td style="vertical-align:top;">:</td><td><div>True</div></td></tr><tr><td style="font-weight:bold;vertical-align:top;">wsgi.run_once</td><td style="vertical-align:top;">:</td><td><div>False</div></td></tr><tr><td style="font-weight:bold;vertical-align:top;">wsgi.url_scheme</td><td style="vertical-align:top;">:</td><td><div>http</div></td></tr><tr><td style="font-weight:bold;vertical-align:top;">wsgi.version</td><td style="vertical-align:top;">:</td><td><div><table><tr><td><div>1</div></td></tr><tr><td><div>0</div></td></tr></table></div></td></tr><tr><td style="font-weight:bold;vertical-align:top;">wsgi_errors</td><td style="vertical-align:top;">:</td><td><div>&lt;open file &#x27;&lt;stderr&gt;&#x27;, mode &#x27;w&#x27; at 0x01D5D0D0&gt;</div></td></tr><tr><td style="font-weight:bold;vertical-align:top;">wsgi_file_wrapper</td><td style="vertical-align:top;">:</td><td><div>&lt;class wsgiref.util.FileWrapper at 0x03963228&gt;</div></td></tr><tr><td style="font-weight:bold;vertical-align:top;">wsgi_input</td><td style="vertical-align:top;">:</td><td><div>&lt;socket._fileobject object at 0x0437DD30&gt;</div></td></tr><tr><td style="font-weight:bold;vertical-align:top;">wsgi_multiprocess</td><td style="vertical-align:top;">:</td><td><div>False</div></td></tr><tr><td style="font-weight:bold;vertical-align:top;">wsgi_multithread</td><td style="vertical-align:top;">:</td><td><div>True</div></td></tr><tr><td style="font-weight:bold;vertical-align:top;">wsgi_run_once</td><td style="vertical-align:top;">:</td><td><div>False</div></td></tr><tr><td style="font-weight:bold;vertical-align:top;">wsgi_url_scheme</td><td style="vertical-align:top;">:</td><td><div>http</div></td></tr><tr><td style="font-weight:bold;vertical-align:top;">wsgi_version</td><td style="vertical-align:top;">:</td><td><div><table><tr><td><div>1</div></td></tr><tr><td><div>0</div></td></tr></table></div></td></tr></table></div></td></tr><tr><td style="font-weight:bold;vertical-align:top;">extension</td><td style="vertical-align:top;">:</td><td><div>html</div></td></tr><tr><td style="font-weight:bold;vertical-align:top;">folder</td><td style="vertical-align:top;">:</td><td><div>C:\\Users\\Jason\\Downloads\\web2py\\applications\\P2P\\</div></td></tr><tr><td style="font-weight:bold;vertical-align:top;">function</td><td style="vertical-align:top;">:</td><td><div>edit</div></td></tr><tr><td style="font-weight:bold;vertical-align:top;">global_settings</td><td style="vertical-align:top;">:</td><td><div><table><tr><td style="font-weight:bold;vertical-align:top;">app_folders</td><td style="vertical-align:top;">:</td><td><div>set([&#x27;C:\\\\Users\\\\Jason\\\\Downloads\\\\web2py\\\\applications\\\\welcome\\\\&#x27;, &#x27;C:\\\\Users\\\\Jason\\\\Downloads\\\\web2py\\\\applications\\\\admin\\\\&#x27;, &#x27;C:\\\\Users\\\\Jason\\\\Downloads\\\\web2py\\\\applications\\\\P2P\\\\&#x27;])</div></td></tr><tr><td style="font-weight:bold;vertical-align:top;">applications_parent</td><td style="vertical-align:top;">:</td><td><div>C:\\Users\\Jason\\Downloads\\web2py</div></td></tr><tr><td style="font-weight:bold;vertical-align:top;">cmd_args</td><td style="vertical-align:top;">:</td><td><div><table></table></div></td></tr><tr><td style="font-weight:bold;vertical-align:top;">cmd_options</td><td style="vertical-align:top;">:</td><td><div>&lt;Values at 0x2edf6e8: {&#x27;verbose&#x27;: False, &#x27;ip&#x27;: &#x27;127.0.0.1&#x27;, &#x27;debuglevel&#x27;: 30, &#x27;with_scheduler&#x27;: False, &#x27;ips&#x27;: [&#x27;fe80::c4d9:80a7:6927:91dc%20&#x27;, &#x27;192.168.1.21&#x27;, &#x27;fe80::ad25:41ef:cc7a:b5f4%16&#x27;, &#x27;fe80::7910:6b7f:64e5:6055%24&#x27;, &#x27;fe80::80aa:bcc3:c776:b57a%23&#x27;, &#x27;192.168.56.1&#x27;, &#x27;192.168.109.1&#x27;, &#x27;192.168.158.1&#x27;], &#x27;shutdown_timeout&#x27;: 5, &#x27;taskbar&#x27;: False, &#x27;with_coverage&#x27;: False, &#x27;scheduler_groups&#x27;: None, &#x27;port&#x27;: 8000, &#x27;maxthreads&#x27;: None, &#x27;softcron&#x27;: False, &#x27;server_name&#x27;: &#x27;Witidek&#x27;, &#x27;bpython&#x27;: False, &#x27;nogui&#x27;: False, &#x27;pid_filename&#x27;: &#x27;httpserver.pid&#x27;, &#x27;print_errors&#x27;: False, &#x27;extcron&#x27;: False, &#x27;runcron&#x27;: False, &#x27;run_system_tests&#x27;: False, &#x27;test&#x27;: None, &#x27;folder&#x27;: &#x27;C:\\\\Users\\\\Jason\\\\Downloads\\\\web2py&#x27;, &#x27;config&#x27;: &#x27;&#x27;, &#x27;minthreads&#x27;: None, &#x27;shell&#x27;: None, &#x27;run&#x27;: &#x27;&#x27;, &#x27;log_filename&#x27;: &#x27;httpserver.log&#x27;, &#x27;profiler_dir&#x27;: None, &#x27;args&#x27;: [&#x27;&#x27;], &#x27;socket_timeout&#x27;: 5, &#x27;ssl_ca_certificate&#x27;: None, &#x27;scheduler&#x27;: None, &#x27;interfaces&#x27;: None, &#x27;ssl_private_key&#x27;: &#x27;&#x27;, &#x27;gae&#x27;: None, &#x27;password&#x27;: &#x27;&lt;ask&gt;&#x27;, &#x27;request_queue_size&#x27;: 5, &#x27;ssl_certificate&#x27;: &#x27;&#x27;, &#x27;cronjob&#x27;: False, &#x27;numthreads&#x27;: None, &#x27;quiet&#x27;: False, &#x27;import_models&#x27;: False, &#x27;timeout&#x27;: 10, &#x27;plain&#x27;: False, &#x27;nobanner&#x27;: False}&gt;</div></td></tr><tr><td style="font-weight:bold;vertical-align:top;">db_sessions</td><td style="vertical-align:top;">:</td><td><div>set([])</div></td></tr><tr><td style="font-weight:bold;vertical-align:top;">debugging</td><td style="vertical-align:top;">:</td><td><div>True</div></td></tr><tr><td style="font-weight:bold;vertical-align:top;">gluon_parent</td><td style="vertical-align:top;">:</td><td><div>C:\\Users\\Jason\\Downloads\\web2py</div></td></tr><tr><td style="font-weight:bold;vertical-align:top;">is_jython</td><td style="vertical-align:top;">:</td><td><div>False</div></td></tr><tr><td style="font-weight:bold;vertical-align:top;">is_pypy</td><td style="vertical-align:top;">:</td><td><div>False</div></td></tr><tr><td style="font-weight:bold;vertical-align:top;">is_source</td><td style="vertical-align:top;">:</td><td><div>False</div></td></tr><tr><td style="font-weight:bold;vertical-align:top;">local_hosts</td><td style="vertical-align:top;">:</td><td><div><table><tr><td><div>fe80::c4d9:80a7:6927:91dc%20</div></td></tr><tr><td><div>192.168.1.21</div></td></tr><tr><td><div>fe80::ad25:41ef:cc7a:b5f4%16</div></td></tr><tr><td><div>fe80::7910:6b7f:64e5:6055%24</div></td></tr><tr><td><div>::ffff:127.0.0.1</div></td></tr><tr><td><div>::1</div></td></tr><tr><td><div>fe80::80aa:bcc3:c776:b57a%23</div></td></tr><tr><td><div>Witidek</div></td></tr><tr><td><div>192.168.158.1</div></td></tr><tr><td><div>192.168.109.1</div></td></tr><tr><td><div>127.0.0.1</div></td></tr><tr><td><div>192.168.56.1</div></td></tr></table></div></td></tr><tr><td style="font-weight:bold;vertical-align:top;">web2py_version</td><td style="vertical-align:top;">:</td><td><div>2.13.4-stable+timestamp.2015.12.26.04.59.39</div></td></tr></table></div></td></tr><tr><td style="font-weight:bold;vertical-align:top;">is_https</td><td style="vertical-align:top;">:</td><td><div>False</div></td></tr><tr><td style="font-weight:bold;vertical-align:top;">is_local</td><td style="vertical-align:top;">:</td><td><div>True</div></td></tr><tr><td style="font-weight:bold;vertical-align:top;">is_restful</td><td style="vertical-align:top;">:</td><td><div>False</div></td></tr><tr><td style="font-weight:bold;vertical-align:top;">is_scheduler</td><td style="vertical-align:top;">:</td><td><div>False</div></td></tr><tr><td style="font-weight:bold;vertical-align:top;">is_shell</td><td style="vertical-align:top;">:</td><td><div>False</div></td></tr><tr><td style="font-weight:bold;vertical-align:top;">now</td><td style="vertical-align:top;">:</td><td><div>datetime.datetime(2016, 2, 19, 1, 46, 29, 309000)</div></td></tr><tr><td style="font-weight:bold;vertical-align:top;">raw_args</td><td style="vertical-align:top;">:</td><td><div>21</div></td></tr><tr><td style="font-weight:bold;vertical-align:top;">raw_extension</td><td style="vertical-align:top;">:</td><td><div>None</div></td></tr><tr><td style="font-weight:bold;vertical-align:top;">url</td><td style="vertical-align:top;">:</td><td><div>/P2P/default/edit/21</div></td></tr><tr><td style="font-weight:bold;vertical-align:top;">utcnow</td><td style="vertical-align:top;">:</td><td><div>datetime.datetime(2016, 2, 19, 9, 46, 29, 309000)</div></td></tr><tr><td style="font-weight:bold;vertical-align:top;">wsgi</td><td style="vertical-align:top;">:</td><td><div>&lt;gluon.main.LazyWSGI object at 0x0465E730&gt;</div></td></tr></table></div>'
tRp58
sS'frames'
p59
(lp60
(dp61
S'file'
p62
S'C:\\Users\\Jason\\Downloads\\web2py\\gluon\\restricted.py'
p63
sS'dump'
p64
(dp65
S'environment'
p66
S"{'A': <class 'gluon.html.A'>, 'ANY_OF': <class 'gluon.validators.ANY_OF'>, 'ASSIGNJS': <function ASSIGNJS>, 'AppConfig': <function AppConfig>, 'Auth': <class 'gluon.tools.Auth'>, 'B': <class 'gluon.html.B'>, 'BEAUTIFY': <class 'gluon.html.BEAUTIFY'>, 'BODY': <class 'gluon.html.BODY'>, 'BR': <class 'gluon.html.BR'>, 'BUTTON': <class 'gluon.html.BUTTON'>, ...}"
p67
sS'ccode'
p68
S'<code object <module> at 080D4650, file "C:\\User...pplications\\P2P\\controllers/default.py", line 10>'
p69
ssS'lnum'
p70
I227
sS'lines'
p71
(dp72
I224
S'            ccode = code'
p73
sI225
S'        else:'
p74
sI226
S'            ccode = compile2(code, layer)'
p75
sI227
S'        exec ccode in environment'
p76
sI228
S'    except HTTP:'
p77
sI229
S'        raise'
p78
sI230
S'    except RestrictedError:'
p79
sI231
S'        # do not encapsulate (obfuscate) the original RestrictedError'
p80
sI222
S'    try:'
p81
sI223
S'        if isinstance(code, types.CodeType):'
p82
ssS'call'
p83
S"(code='# -*- coding: utf-8 -*-\\n# this file is released ... locals()\\n\\nresponse._vars=response._caller(edit)\\n', environment={'A': <class 'gluon.html.A'>, 'ANY_OF': <class 'gluon.validators.ANY_OF'>, 'ASSIGNJS': <function ASSIGNJS>, 'AppConfig': <function AppConfig>, 'Auth': <class 'gluon.tools.Auth'>, 'B': <class 'gluon.html.B'>, 'BEAUTIFY': <class 'gluon.html.BEAUTIFY'>, 'BODY': <class 'gluon.html.BODY'>, 'BR': <class 'gluon.html.BR'>, 'BUTTON': <class 'gluon.html.BUTTON'>, ...}, layer=r'C:\\Users\\Jason\\Downloads\\web2py\\applications\\P2P\\controllers/default.py')"
p84
sS'func'
p85
S'restricted'
p86
sa(dp87
g62
S'C:\\Users\\Jason\\Downloads\\web2py\\applications\\P2P\\controllers\\default.py'
p88
sg64
(dp89
sg70
I193
sg71
(dp90
I182
S"        redirect(URL('poem', args=poem.id))"
p91
sI183
S'    return locals()'
p92
sI184
S''
sI185
S'@auth.requires_login()'
p93
sI186
S'def profile():'
p94
sI187
S'    user = auth.user'
p95
sI188
S'    poem = db.poem'
p96
sI189
S'    poems_owned = db(db.poem.author == user.id).select()'
p97
sI190
S'    poems_contributed = db((db.newline.author == user.id) & (db.poem.id == db.newline.poem_id)).select(groupby=db.poem.id)'
p98
sI191
S'    return locals()'
p99
ssg83
S'()'
p100
sg85
S'<module>'
p101
sa(dp102
g62
S'C:\\Users\\Jason\\Downloads\\web2py\\gluon\\globals.py'
p103
sg64
(dp104
S'self'
p105
S'undefined'
p106
sS'f'
S'<function edit>'
p107
ssg70
I412
sg71
(dp108
I416
S"        self.generic_patterns = ['*']"
p109
sI407
S"        self.flash = ''            # used by the default view layout"
p110
sI408
S'        self.meta = Storage()      # used by web2py_ajax.html'
p111
sI409
S'        self.menu = []             # used by the default view layout'
p112
sI410
S'        self.files = []            # used by web2py_ajax.html'
p113
sI411
S'        self._vars = None'
p114
sI412
S'        self._caller = lambda f: f()'
p115
sI413
S'        self._view_environment = None'
p116
sI414
S'        self._custom_commit = None'
p117
sI415
S'        self._custom_rollback = None'
p118
ssg83
S'(f=<function edit>)'
p119
sg85
S'<lambda>'
p120
sa(dp121
g62
S'C:\\Users\\Jason\\Downloads\\web2py\\gluon\\tools.py'
p122
sg64
(dp123
S'action'
p124
S'<function edit>'
p125
sS'a'
S'()'
p126
sS'b'
g45
ssg70
I4236
sg71
(dp127
I4231
S'                    flag = condition'
p128
sI4232
S'                if not flag:'
p129
sI4233
S'                    current.session.flash = self.messages.access_denied'
p130
sI4234
S'                    return call_or_redirect('
p131
sI4235
S'                        self.settings.on_failed_authorization)'
p132
sI4236
S'                return action(*a, **b)'
p133
sI4237
S'            f.__doc__ = action.__doc__'
p134
sI4238
S'            f.__name__ = action.__name__'
p135
sI4239
S'            f.__dict__.update(action.__dict__)'
p136
sI4240
S'            return f'
p137
ssg83
S'(*a=(), **b={})'
p138
sg85
S'f'
sa(dp139
g62
S'C:\\Users\\Jason\\Downloads\\web2py\\applications\\P2P\\controllers\\default.py'
p140
sg64
(dp141
S'_type'
p142
g106
sS'line.line'
p143
S"'all hail the git'"
p144
sS'onvalidation'
p145
g106
sS'global delete_line'
p146
S'<function delete_line>'
p147
sS'delete_form'
p148
g106
sS'global FORM'
p149
S"<class 'gluon.html.FORM'>"
p150
sS'line'
p151
S"<Row {'line_number': 3L, 'author': 3L, 'id': 11L...sted': datetime.datetime(2016, 2, 19, 1, 39, 9)}>"
p152
sS'global INPUT'
p153
S"<class 'gluon.html.INPUT'>"
p154
ssg70
I93
sg71
(dp155
I96
S"        #lines_form.append(SQLFORM(db.newline, record=line.id, showid=False, deletable=True, submit_button = 'Delete', fields=['line']).process())"
p156
sI97
S''
sI88
S'    # Create SQLFORM'
p157
sI89
S"    form = SQLFORM(db.poem, record=poem, fields=['title','body']).process()"
p158
sI90
S'    lines = db(db.newline.poem_id == poem_id).select(orderby=db.newline.line_number)'
p159
sI91
S'    lines_form = []'
p160
sI92
S'    for line in lines:'
p161
sI93
S"        delete_form = FORM('Test line:', line.line, INPUT(_type='submit')).process(onvalidation=delete_line)"
p162
sI94
S'        delete_form.vars.line = line'
p163
sI95
S'        lines_form.append(delete_form)'
p164
ssg83
S'()'
p165
sg85
S'edit'
p166
sa(dp167
g62
S'C:\\Users\\Jason\\Downloads\\web2py\\gluon\\html.py'
p168
sg64
(dp169
S'self'
p170
S'<gluon.html.FORM object>'
p171
sS'self.validate'
p172
S'<bound method FORM.validate of <gluon.html.FORM object>>'
p173
sS'kwargs'
p174
S"{'dbio': True, 'onvalidation': <function delete_line>}"
p175
ssg70
I2304
sg71
(dp176
I2304
S'        self.validate(**kwargs)'
p177
sI2305
S'        return self'
p178
sI2306
S''
sI2307
S'    REDIRECT_JS = "window.location=\'%s\';return false"'
p179
sI2308
S''
sI2299
S''
sI2300
S''
sI2301
S'        """'
p180
sI2302
S"        kwargs['dbio'] = kwargs.get('dbio', True)"
p181
sI2303
S'                                    # necessary for SQLHTML forms'
p182
ssg83
S"(self=<gluon.html.FORM object>, **kwargs={'dbio': True, 'onvalidation': <function delete_line>})"
p183
sg85
S'process'
p184
sa(dp185
g62
S'C:\\Users\\Jason\\Downloads\\web2py\\gluon\\html.py'
p186
sg64
(dp187
S'self'
p188
S'<gluon.html.FORM object>'
p189
sS'self.accepts'
p190
S'<bound method FORM.accepts of <gluon.html.FORM object>>'
p191
sS'kwargs'
p192
S"{'dbio': True, 'onvalidation': <function delete_line>, 'request_vars': <Storage {'_formkey': '0f7fe801-93b0-448d-bf33-dc565565a025', '_formname': 'default'}>, 'session': <Storage {'last_query': 'db.poem.id>0', '_formke...gin]': ['e28e0b44-2e28-44c0-97e7-82ba8827facd']}>}"
p193
ssg70
I2241
sg71
(dp194
I2240
S''
sI2241
S'        if self.accepts(**kwargs):'
p195
sI2242
S"            if onsuccess == 'flash':"
p196
sI2243
S'                if next:'
p197
sI2244
S'                    current.session.flash = message_onsuccess'
p198
sI2245
S'                else:'
p199
sI2236
S"        for key in ('message_onsuccess', 'message_onfailure', 'onsuccess',"
p200
sI2237
S"                    'onfailure', 'next', 'message_onchange', 'onchange'):"
p201
sI2238
S'            if key in kwargs:'
p202
sI2239
S'                del kwargs[key]'
p203
ssg83
S"(self=<gluon.html.FORM object>, **kwargs={'dbio': True, 'onvalidation': <function delete_line>, 'request_vars': <Storage {'_formkey': '0f7fe801-93b0-448d-bf33-dc565565a025', '_formname': 'default'}>, 'session': <Storage {'last_query': 'db.poem.id>0', '_formke...gin]': ['e28e0b44-2e28-44c0-97e7-82ba8827facd']}>})"
p204
sg85
S'validate'
p205
sa(dp206
g62
S'C:\\Users\\Jason\\Downloads\\web2py\\gluon\\html.py'
p207
sg64
(dp208
S'global call_as_list'
p209
S'<function call_as_list>'
p210
sS'self'
p211
S'<gluon.html.FORM object>'
p212
sS'onvalidation'
p213
S'<function delete_line>'
p214
ssg70
I2142
sg71
(dp215
I2144
S'            status = False'
p216
sI2145
S'        if not session is None:'
p217
sI2146
S"            if hasattr(self, 'record_hash'):"
p218
sI2137
S'                if changed:'
p219
sI2138
S'                    if onchange and self.record_changed and \\'
p220
sI2139
S'                            self.detect_record_change:'
p221
sI2140
S'                        call_as_list(onchange, self)'
p222
sI2141
S'            elif status:'
p223
sI2142
S'                call_as_list(onvalidation, self)'
p224
sI2143
S'        if self.errors:'
p225
ssg83
S"(self=<gluon.html.FORM object>, request_vars=<Storage {'_formkey': '0f7fe801-93b0-448d-bf33-dc565565a025', '_formname': 'default'}>, session=<Storage {'last_query': 'db.poem.id>0', '_formke...gin]': ['e28e0b44-2e28-44c0-97e7-82ba8827facd']}>, formname='default', keepvalues=False, onvalidation=<function delete_line>, hideerror=False, **kwargs={'dbio': True})"
p226
sg85
S'accepts'
p227
sa(dp228
g62
S'C:\\Users\\Jason\\Downloads\\web2py\\gluon\\html.py'
p229
sg64
(dp230
S'a'
S'(<gluon.html.FORM object>,)'
p231
sS'item'
p232
S'<function delete_line>'
p233
sS'b'
g45
ssg70
I146
sg71
(dp234
I141
S''
sI142
S'def call_as_list(f, *a, **b):'
p235
sI143
S'    if not isinstance(f, (list, tuple)):'
p236
sI144
S'        f = [f]'
p237
sI145
S'    for item in f:'
p238
sI146
S'        item(*a, **b)'
p239
sI147
S''
sI148
S"def truncate_string(text, length, dots='...'):"
p240
sI149
S"    text = text.decode('utf-8')"
p241
sI150
S'    if len(text) > length:'
p242
ssg83
S'(f=[<function delete_line>], *a=(<gluon.html.FORM object>,), **b={})'
p243
sg85
S'call_as_list'
p244
sa(dp245
g62
S'C:\\Users\\Jason\\Downloads\\web2py\\applications\\P2P\\controllers\\default.py'
p246
sg64
(dp247
S'form.vars.line'
p248
S'None'
p249
sS'form.vars.line.line'
p250
g106
sS'form.vars'
p251
S'<Storage {}>'
p252
sS'form'
p253
S'<gluon.html.FORM object>'
p254
ssg70
I118
sg71
(dp255
I113
S'                    db.permission.insert(user_id = users.id , poem_id = poem.id)'
p256
sI114
S"                    response.flash = 'Added'"
p257
sI115
S'    return locals()'
p258
sI116
S''
sI117
S'def delete_line(form):'
p259
sI118
S"    print 'okay I will delete the line' + form.vars.line.line"
p260
sI119
S''
sI120
S'@auth.requires_login()'
p261
sI121
S'def add():'
p262
sI122
S'    import urllib'
p263
ssg83
S'(form=<gluon.html.FORM object>)'
p264
sg85
S'delete_line'
p265
sasS'pyver'
p266
S'Python 2.7.9: C:\\Users\\Jason\\Downloads\\web2py\\web2py.exe (prefix: )'
p267
sS'session'
p268
g57
(S's\x85\n\x00\x00<div><table><tr><td style="font-weight:bold;vertical-align:top;">auth</td><td style="vertical-align:top;">:</td><td><div><table><tr><td style="font-weight:bold;vertical-align:top;">expiration</td><td style="vertical-align:top;">:</td><td><div>3600</div></td></tr><tr><td style="font-weight:bold;vertical-align:top;">hmac_key</td><td style="vertical-align:top;">:</td><td><div>80d269aa-2e38-4515-b4fe-776ed3f862d7</div></td></tr><tr><td style="font-weight:bold;vertical-align:top;">last_visit</td><td style="vertical-align:top;">:</td><td><div>datetime.datetime(2016, 2, 19, 1, 42, 43, 893000)</div></td></tr><tr><td style="font-weight:bold;vertical-align:top;">remember_me</td><td style="vertical-align:top;">:</td><td><div>False</div></td></tr><tr><td style="font-weight:bold;vertical-align:top;">user</td><td style="vertical-align:top;">:</td><td><div><table><tr><td style="font-weight:bold;vertical-align:top;">email</td><td style="vertical-align:top;">:</td><td><div>test@test.com</div></td></tr><tr><td style="font-weight:bold;vertical-align:top;">first_name</td><td style="vertical-align:top;">:</td><td><div>test</div></td></tr><tr><td style="font-weight:bold;vertical-align:top;">id</td><td style="vertical-align:top;">:</td><td><div>3L</div></td></tr><tr><td style="font-weight:bold;vertical-align:top;">last_name</td><td style="vertical-align:top;">:</td><td><div>test</div></td></tr><tr><td style="font-weight:bold;vertical-align:top;">registration_id</td><td style="vertical-align:top;">:</td><td><div></div></td></tr><tr><td style="font-weight:bold;vertical-align:top;">registration_key</td><td style="vertical-align:top;">:</td><td><div></div></td></tr><tr><td style="font-weight:bold;vertical-align:top;">reset_password_key</td><td style="vertical-align:top;">:</td><td><div></div></td></tr><tr><td style="font-weight:bold;vertical-align:top;">username</td><td style="vertical-align:top;">:</td><td><div>testtest</div></td></tr></table></div></td></tr><tr><td style="font-weight:bold;vertical-align:top;">user_groups</td><td style="vertical-align:top;">:</td><td><div><table><tr><td style="font-weight:bold;vertical-align:top;">3</td><td style="vertical-align:top;">:</td><td><div>user_3</div></td></tr></table></div></td></tr></table></div></td></tr><tr><td style="font-weight:bold;vertical-align:top;">flash</td><td style="vertical-align:top;">:</td><td><div>None</div></td></tr><tr><td style="font-weight:bold;vertical-align:top;">last_orderby</td><td style="vertical-align:top;">:</td><td><div>None</div></td></tr><tr><td style="font-weight:bold;vertical-align:top;">last_query</td><td style="vertical-align:top;">:</td><td><div>db.poem.id&gt;0</div></td></tr></table></div>'
tRp269
sS'etype'
p270
S"<type 'exceptions.AttributeError'>"
p271
sS'date'
p272
S'Fri Feb 19 01:46:29 2016'
p273
sS'response'
p274
g57
(S's;?\x00\x00<div><table><tr><td style="font-weight:bold;vertical-align:top;">body</td><td style="vertical-align:top;">:</td><td><div>&lt;cStringIO.StringO object at 0x044E45E0&gt;</div></td></tr><tr><td style="font-weight:bold;vertical-align:top;">cookies</td><td style="vertical-align:top;">:</td><td><div><table><tr><td style="font-weight:bold;vertical-align:top;">session_id_p2p</td><td style="vertical-align:top;">:</td><td><div>127.0.0.1-3ac7673d-e0d0-491f-b01d-445ea08c6c9c<table><tr><td style="font-weight:bold;vertical-align:top;">comment</td><td style="vertical-align:top;">:</td><td><div></div></td></tr><tr><td style="font-weight:bold;vertical-align:top;">domain</td><td style="vertical-align:top;">:</td><td><div></div></td></tr><tr><td style="font-weight:bold;vertical-align:top;">expires</td><td style="vertical-align:top;">:</td><td><div></div></td></tr><tr><td style="font-weight:bold;vertical-align:top;">httponly</td><td style="vertical-align:top;">:</td><td><div></div></td></tr><tr><td style="font-weight:bold;vertical-align:top;">max-age</td><td style="vertical-align:top;">:</td><td><div></div></td></tr><tr><td style="font-weight:bold;vertical-align:top;">path</td><td style="vertical-align:top;">:</td><td><div>/</div></td></tr><tr><td style="font-weight:bold;vertical-align:top;">secure</td><td style="vertical-align:top;">:</td><td><div></div></td></tr><tr><td style="font-weight:bold;vertical-align:top;">version</td><td style="vertical-align:top;">:</td><td><div></div></td></tr></table></div></td></tr></table></div></td></tr><tr><td style="font-weight:bold;vertical-align:top;">delimiters</td><td style="vertical-align:top;">:</td><td><div><table><tr><td><div>{{</div></td></tr><tr><td><div>}}</div></td></tr></table></div></td></tr><tr><td style="font-weight:bold;vertical-align:top;">files</td><td style="vertical-align:top;">:</td><td><div><table></table></div></td></tr><tr><td style="font-weight:bold;vertical-align:top;">flash</td><td style="vertical-align:top;">:</td><td><div></div></td></tr><tr><td style="font-weight:bold;vertical-align:top;">form_label_separator</td><td style="vertical-align:top;">:</td><td><div></div></td></tr><tr><td style="font-weight:bold;vertical-align:top;">formstyle</td><td style="vertical-align:top;">:</td><td><div>bootstrap3_inline</div></td></tr><tr><td style="font-weight:bold;vertical-align:top;">generic_patterns</td><td style="vertical-align:top;">:</td><td><div><table><tr><td><div>*</div></td></tr></table></div></td></tr><tr><td style="font-weight:bold;vertical-align:top;">google_analytics_id</td><td style="vertical-align:top;">:</td><td><div>None</div></td></tr><tr><td style="font-weight:bold;vertical-align:top;">headers</td><td style="vertical-align:top;">:</td><td><div><table><tr><td style="font-weight:bold;vertical-align:top;">X-Powered-By</td><td style="vertical-align:top;">:</td><td><div>web2py</div></td></tr></table></div></td></tr><tr><td style="font-weight:bold;vertical-align:top;">logo</td><td style="vertical-align:top;">:</td><td><div><a class="navbar-brand" href="index" id="web2py-logo"><b>web<span>2</span>py</b>&trade;&nbsp;</a></div></td></tr><tr><td style="font-weight:bold;vertical-align:top;">menu</td><td style="vertical-align:top;">:</td><td><div><table><tr><td><div><table><tr><td><div>Home</div></td></tr><tr><td><div>False</div></td></tr><tr><td><div>/P2P/default/index</div></td></tr><tr><td><div><table></table></div></td></tr></table></div></td></tr><tr><td><div><table><tr><td><div>My Sites</div></td></tr><tr><td><div>False</div></td></tr><tr><td><div>/admin/default/site</div></td></tr></table></div></td></tr><tr><td><div><table><tr><td><div>This App</div></td></tr><tr><td><div>False</div></td></tr><tr><td><div>#</div></td></tr><tr><td><div><table><tr><td><div><table><tr><td><div>Design</div></td></tr><tr><td><div>False</div></td></tr><tr><td><div>/admin/default/design/P2P</div></td></tr></table></div></td></tr><tr><td><div><li class="divider"></li></div></td></tr><tr><td><div><table><tr><td><div>Controller</div></td></tr><tr><td><div>False</div></td></tr><tr><td><div>/admin/default/edit/P2P/controllers/default.py</div></td></tr></table></div></td></tr><tr><td><div><table><tr><td><div>View</div></td></tr><tr><td><div>False</div></td></tr><tr><td><div>/admin/default/edit/P2P/views/default/edit.html</div></td></tr></table></div></td></tr><tr><td><div><table><tr><td><div>DB Model</div></td></tr><tr><td><div>False</div></td></tr><tr><td><div>/admin/default/edit/P2P/models/db.py</div></td></tr></table></div></td></tr><tr><td><div><table><tr><td><div>Menu Model</div></td></tr><tr><td><div>False</div></td></tr><tr><td><div>/admin/default/edit/P2P/models/menu.py</div></td></tr></table></div></td></tr><tr><td><div><table><tr><td><div>Config.ini</div></td></tr><tr><td><div>False</div></td></tr><tr><td><div>/admin/default/edit/P2P/private/appconfig.ini</div></td></tr></table></div></td></tr><tr><td><div><table><tr><td><div>Layout</div></td></tr><tr><td><div>False</div></td></tr><tr><td><div>/admin/default/edit/P2P/views/layout.html</div></td></tr></table></div></td></tr><tr><td><div><table><tr><td><div>Stylesheet</div></td></tr><tr><td><div>False</div></td></tr><tr><td><div>/admin/default/edit/P2P/static/css/web2py-bootstrap3.css</div></td></tr></table></div></td></tr><tr><td><div><table><tr><td><div>Database</div></td></tr><tr><td><div>False</div></td></tr><tr><td><div>/P2P/appadmin/index</div></td></tr></table></div></td></tr><tr><td><div><table><tr><td><div>Errors</div></td></tr><tr><td><div>False</div></td></tr><tr><td><div>/admin/default/errors/P2P</div></td></tr></table></div></td></tr><tr><td><div><table><tr><td><div>About</div></td></tr><tr><td><div>False</div></td></tr><tr><td><div>/admin/default/about/P2P</div></td></tr></table></div></td></tr></table></div></td></tr></table></div></td></tr><tr><td><div><table><tr><td><div>web2py.com</div></td></tr><tr><td><div>False</div></td></tr><tr><td><div>#</div></td></tr><tr><td><div><table><tr><td><div><table><tr><td><div>Download</div></td></tr><tr><td><div>False</div></td></tr><tr><td><div>http://www.web2py.com/examples/default/download</div></td></tr></table></div></td></tr><tr><td><div><table><tr><td><div>Support</div></td></tr><tr><td><div>False</div></td></tr><tr><td><div>http://www.web2py.com/examples/default/support</div></td></tr></table></div></td></tr><tr><td><div><table><tr><td><div>Demo</div></td></tr><tr><td><div>False</div></td></tr><tr><td><div>http://web2py.com/demo_admin</div></td></tr></table></div></td></tr><tr><td><div><table><tr><td><div>Quick Examples</div></td></tr><tr><td><div>False</div></td></tr><tr><td><div>http://web2py.com/examples/default/examples</div></td></tr></table></div></td></tr><tr><td><div><table><tr><td><div>FAQ</div></td></tr><tr><td><div>False</div></td></tr><tr><td><div>http://web2py.com/AlterEgo</div></td></tr></table></div></td></tr><tr><td><div><table><tr><td><div>Videos</div></td></tr><tr><td><div>False</div></td></tr><tr><td><div>http://www.web2py.com/examples/default/videos/</div></td></tr></table></div></td></tr><tr><td><div><table><tr><td><div>Free Applications</div></td></tr><tr><td><div>False</div></td></tr><tr><td><div>http://web2py.com/appliances</div></td></tr></table></div></td></tr><tr><td><div><table><tr><td><div>Plugins</div></td></tr><tr><td><div>False</div></td></tr><tr><td><div>http://web2py.com/plugins</div></td></tr></table></div></td></tr><tr><td><div><table><tr><td><div>Recipes</div></td></tr><tr><td><div>False</div></td></tr><tr><td><div>http://web2pyslices.com/</div></td></tr></table></div></td></tr></table></div></td></tr></table></div></td></tr><tr><td><div><table><tr><td><div>Documentation</div></td></tr><tr><td><div>False</div></td></tr><tr><td><div>#</div></td></tr><tr><td><div><table><tr><td><div><table><tr><td><div>Online book</div></td></tr><tr><td><div>False</div></td></tr><tr><td><div>http://www.web2py.com/book</div></td></tr></table></div></td></tr><tr><td><div><li class="divider"></li></div></td></tr><tr><td><div><table><tr><td><div>Preface</div></td></tr><tr><td><div>False</div></td></tr><tr><td><div>http://www.web2py.com/book/default/chapter/00</div></td></tr></table></div></td></tr><tr><td><div><table><tr><td><div>Introduction</div></td></tr><tr><td><div>False</div></td></tr><tr><td><div>http://www.web2py.com/book/default/chapter/01</div></td></tr></table></div></td></tr><tr><td><div><table><tr><td><div>Python</div></td></tr><tr><td><div>False</div></td></tr><tr><td><div>http://www.web2py.com/book/default/chapter/02</div></td></tr></table></div></td></tr><tr><td><div><table><tr><td><div>Overview</div></td></tr><tr><td><div>False</div></td></tr><tr><td><div>http://www.web2py.com/book/default/chapter/03</div></td></tr></table></div></td></tr><tr><td><div><table><tr><td><div>The Core</div></td></tr><tr><td><div>False</div></td></tr><tr><td><div>http://www.web2py.com/book/default/chapter/04</div></td></tr></table></div></td></tr><tr><td><div><table><tr><td><div>The Views</div></td></tr><tr><td><div>False</div></td></tr><tr><td><div>http://www.web2py.com/book/default/chapter/05</div></td></tr></table></div></td></tr><tr><td><div><table><tr><td><div>Database</div></td></tr><tr><td><div>False</div></td></tr><tr><td><div>http://www.web2py.com/book/default/chapter/06</div></td></tr></table></div></td></tr><tr><td><div><table><tr><td><div>Forms and Validators</div></td></tr><tr><td><div>False</div></td></tr><tr><td><div>http://www.web2py.com/book/default/chapter/07</div></td></tr></table></div></td></tr><tr><td><div><table><tr><td><div>Email and SMS</div></td></tr><tr><td><div>False</div></td></tr><tr><td><div>http://www.web2py.com/book/default/chapter/08</div></td></tr></table></div></td></tr><tr><td><div><table><tr><td><div>Access Control</div></td></tr><tr><td><div>False</div></td></tr><tr><td><div>http://www.web2py.com/book/default/chapter/09</div></td></tr></table></div></td></tr><tr><td><div><table><tr><td><div>Services</div></td></tr><tr><td><div>False</div></td></tr><tr><td><div>http://www.web2py.com/book/default/chapter/10</div></td></tr></table></div></td></tr><tr><td><div><table><tr><td><div>Ajax Recipes</div></td></tr><tr><td><div>False</div></td></tr><tr><td><div>http://www.web2py.com/book/default/chapter/11</div></td></tr></table></div></td></tr><tr><td><div><table><tr><td><div>Components and Plugins</div></td></tr><tr><td><div>False</div></td></tr><tr><td><div>http://www.web2py.com/book/default/chapter/12</div></td></tr></table></div></td></tr><tr><td><div><table><tr><td><div>Deployment Recipes</div></td></tr><tr><td><div>False</div></td></tr><tr><td><div>http://www.web2py.com/book/default/chapter/13</div></td></tr></table></div></td></tr><tr><td><div><table><tr><td><div>Other Recipes</div></td></tr><tr><td><div>False</div></td></tr><tr><td><div>http://www.web2py.com/book/default/chapter/14</div></td></tr></table></div></td></tr><tr><td><div><table><tr><td><div>Helping web2py</div></td></tr><tr><td><div>False</div></td></tr><tr><td><div>http://www.web2py.com/book/default/chapter/15</div></td></tr></table></div></td></tr><tr><td><div><table><tr><td><div>Buy web2py\'s book</div></td></tr><tr><td><div>False</div></td></tr><tr><td><div>http://stores.lulu.com/web2py</div></td></tr></table></div></td></tr></table></div></td></tr></table></div></td></tr><tr><td><div><table><tr><td><div>Community</div></td></tr><tr><td><div>False</div></td></tr><tr><td><div>None</div></td></tr><tr><td><div><table><tr><td><div><table><tr><td><div>Groups</div></td></tr><tr><td><div>False</div></td></tr><tr><td><div>http://www.web2py.com/examples/default/usergroups</div></td></tr></table></div></td></tr><tr><td><div><table><tr><td><div>Twitter</div></td></tr><tr><td><div>False</div></td></tr><tr><td><div>http://twitter.com/web2py</div></td></tr></table></div></td></tr><tr><td><div><table><tr><td><div>Live Chat</div></td></tr><tr><td><div>False</div></td></tr><tr><td><div>http://webchat.freenode.net/?channels=web2py</div></td></tr></table></div></td></tr></table></div></td></tr></table></div></td></tr></table></div></td></tr><tr><td style="font-weight:bold;vertical-align:top;">meta</td><td style="vertical-align:top;">:</td><td><div><table><tr><td style="font-weight:bold;vertical-align:top;">author</td><td style="vertical-align:top;">:</td><td><div>Your Name &lt;you@example.com&gt;</div></td></tr><tr><td style="font-weight:bold;vertical-align:top;">description</td><td style="vertical-align:top;">:</td><td><div>a cool new app</div></td></tr><tr><td style="font-weight:bold;vertical-align:top;">generator</td><td style="vertical-align:top;">:</td><td><div>Web2py Web Framework</div></td></tr><tr><td style="font-weight:bold;vertical-align:top;">keywords</td><td style="vertical-align:top;">:</td><td><div>web2py, python, framework</div></td></tr></table></div></td></tr><tr><td style="font-weight:bold;vertical-align:top;">models_to_run</td><td style="vertical-align:top;">:</td><td><div><table><tr><td><div>^\\w+\\.py$</div></td></tr><tr><td><div>^default/\\w+\\.py$</div></td></tr><tr><td><div>^default/edit/\\w+\\.py$</div></td></tr></table></div></td></tr><tr><td style="font-weight:bold;vertical-align:top;">postprocessing</td><td style="vertical-align:top;">:</td><td><div><table></table></div></td></tr><tr><td style="font-weight:bold;vertical-align:top;">session_client</td><td style="vertical-align:top;">:</td><td><div>127.0.0.1</div></td></tr><tr><td style="font-weight:bold;vertical-align:top;">session_cookie_compression_level</td><td style="vertical-align:top;">:</td><td><div>None</div></td></tr><tr><td style="font-weight:bold;vertical-align:top;">session_cookie_expires</td><td style="vertical-align:top;">:</td><td><div>None</div></td></tr><tr><td style="font-weight:bold;vertical-align:top;">session_cookie_key</td><td style="vertical-align:top;">:</td><td><div>None</div></td></tr><tr><td style="font-weight:bold;vertical-align:top;">session_data_name</td><td style="vertical-align:top;">:</td><td><div>session_data_p2p</div></td></tr><tr><td style="font-weight:bold;vertical-align:top;">session_file</td><td style="vertical-align:top;">:</td><td><div>&lt;open file &#x27;C:\\\\Users\\\\Jason\\\\Downloads\\\\web2py\\\\applications\\\\P2P\\\\sessions\\\\040\\\\1c3\\\\127.0.0.1-3ac7673d-e0d0-491f-b01d-445ea08c6c9c&#x27;, mode &#x27;rb+&#x27; at 0x03974D88&gt;</div></td></tr><tr><td style="font-weight:bold;vertical-align:top;">session_filename</td><td style="vertical-align:top;">:</td><td><div>C:\\Users\\Jason\\Downloads\\web2py\\applications\\P2P\\sessions\\127.0.0.1-3ac7673d-e0d0-491f-b01d-445ea08c6c9c</div></td></tr><tr><td style="font-weight:bold;vertical-align:top;">session_hash</td><td style="vertical-align:top;">:</td><td><div>02fdef2759919c184ef8748ff4ff37f8</div></td></tr><tr><td style="font-weight:bold;vertical-align:top;">session_id</td><td style="vertical-align:top;">:</td><td><div>127.0.0.1-3ac7673d-e0d0-491f-b01d-445ea08c6c9c</div></td></tr><tr><td style="font-weight:bold;vertical-align:top;">session_id_name</td><td style="vertical-align:top;">:</td><td><div>session_id_p2p</div></td></tr><tr><td style="font-weight:bold;vertical-align:top;">session_locked</td><td style="vertical-align:top;">:</td><td><div>True</div></td></tr><tr><td style="font-weight:bold;vertical-align:top;">session_masterapp</td><td style="vertical-align:top;">:</td><td><div>P2P</div></td></tr><tr><td style="font-weight:bold;vertical-align:top;">session_new</td><td style="vertical-align:top;">:</td><td><div>False</div></td></tr><tr><td style="font-weight:bold;vertical-align:top;">session_storage_type</td><td style="vertical-align:top;">:</td><td><div>file</div></td></tr><tr><td style="font-weight:bold;vertical-align:top;">status</td><td style="vertical-align:top;">:</td><td><div>200</div></td></tr><tr><td style="font-weight:bold;vertical-align:top;">subtitle</td><td style="vertical-align:top;">:</td><td><div></div></td></tr><tr><td style="font-weight:bold;vertical-align:top;">title</td><td style="vertical-align:top;">:</td><td><div>P2P</div></td></tr><tr><td style="font-weight:bold;vertical-align:top;">view</td><td style="vertical-align:top;">:</td><td><div>default/edit.html</div></td></tr></table></div>'
tRp275
sS'locals'
p276
(dp277
S'form'
p278
S'<gluon.html.FORM object>'
p279
sssS'traceback'
p280
S'Traceback (most recent call last):\n  File "C:\\Users\\Jason\\Downloads\\web2py\\gluon\\restricted.py", line 227, in restricted\n    exec ccode in environment\n  File "C:\\Users\\Jason\\Downloads\\web2py\\applications\\P2P\\controllers/default.py", line 193, in <module>\n  File "C:\\Users\\Jason\\Downloads\\web2py\\gluon\\globals.py", line 412, in <lambda>\n    self._caller = lambda f: f()\n  File "C:\\Users\\Jason\\Downloads\\web2py\\gluon\\tools.py", line 4236, in f\n    return action(*a, **b)\n  File "C:\\Users\\Jason\\Downloads\\web2py\\applications\\P2P\\controllers/default.py", line 93, in edit\n    delete_form = FORM(\'Test line:\', line.line, INPUT(_type=\'submit\')).process(onvalidation=delete_line)\n  File "C:\\Users\\Jason\\Downloads\\web2py\\gluon\\html.py", line 2304, in process\n    self.validate(**kwargs)\n  File "C:\\Users\\Jason\\Downloads\\web2py\\gluon\\html.py", line 2241, in validate\n    if self.accepts(**kwargs):\n  File "C:\\Users\\Jason\\Downloads\\web2py\\gluon\\html.py", line 2142, in accepts\n    call_as_list(onvalidation, self)\n  File "C:\\Users\\Jason\\Downloads\\web2py\\gluon\\html.py", line 146, in call_as_list\n    item(*a, **b)\n  File "C:\\Users\\Jason\\Downloads\\web2py\\applications\\P2P\\controllers/default.py", line 118, in delete_line\n    print \'okay I will delete the line\' + form.vars.line.line\nAttributeError: \'NoneType\' object has no attribute \'line\'\n'
p281
s.