(dp1
S'output'
p2
S"<class 'urllib2.URLError'> <urlopen error [Errno 11001] getaddrinfo failed>"
p3
sS'layer'
p4
S'C:\\Users\\Kevin\\Desktop\\web2py\\applications\\P2P\\controllers/default.py'
p5
sS'code'
p6
S'# -*- coding: utf-8 -*-\n# this file is released under public domain and you can use without limitations\n\n#########################################################################\n## This is a sample controller\n## - index is the default action of any application\n## - user is required for authentication and authorization\n## - download is for downloading files uploaded in the db (does streaming)\n#########################################################################\nimport datetime\n\ndef index():\n    return locals()\n\ndef user():\n    return dict(form=auth())\n\ndef browse():\n    rows = db(db.poem).select()\n    return locals()\n\ndef search():\n    rows = db(db.poem).select()\n    searchKey = ""\n    searchType = \'Poems\'\n    form = FORM(\'Search: \',\n              INPUT(_name=\'search\'),\n              \'    Search By:  \',\n              INPUT(_type =\'radio\', _name = \'searchType\', _value = \'Poems\', _checked="checked"), \'  Poems \',\n              INPUT(_type =\'radio\', _name = \'searchType\', _value = \'Authors\'),\'  Authors  \',\n              INPUT(_type=\'submit\'))\n    if form.accepts(request,session):\n        searchKey = form.vars.search\n        searchType = form.vars.searchType\n\n    return locals()\n\ndef poem():\n    # Redirect to poem browser if no argument for poem id\n    if not request.args(0): redirect(URL(\'browse\'))\n\n    # Load poem using the URL argument as poem id\n    poem = db.poem(request.args(0,cast=int))\n\n    # Displaying ABAB\n    if (poem.category == \'16 line ABAB rhyme\') or (poem.category == \'16 line AABB rhyme\'):\n        abab = db(db.abab.poem_id == poem.id).select().first()\n        lines = db(db.new_line.poem_id == poem.id).select(orderby=db.new_line.line_number)\n        contributors = db(db.new_line.poem_id == poem.id).select(db.new_line.author, groupby=db.new_line.author)\n    # Displaying Haiku\n    elif poem.category == \'Haiku\':\n        haiku = db(db.haiku.poem_id == poem.id).select().first()\n        words = db(db.new_word.poem_id == poem.id).select(orderby=db.new_word.word_number)\n        contributors = db(db.new_word.poem_id == poem.id).select(db.new_word.author, groupby=db.new_word.author)\n\n    return locals()\n\ndef count_syllables(str):\n    import urllib\n    import urllib2\n    from gluon.contrib import simplejson\n\n    # GET JSONP from RhymeBrain API and parse\n    url = \'http://rhymebrain.com/talk\'\n    data = {}\n    data[\'function\'] = \'getWordInfo\'\n    data[\'word\'] = str\n    url_values = urllib.urlencode(data)\n    full_url = url + \'?\' + url_values\n    data = urllib2.urlopen(full_url)\n    result = data.read()\n    parsed_json = simplejson.loads(result)\n\n    # Return number of syllables cast as int\n    return int(parsed_json[\'syllables\'])\n\n@auth.requires_login()\ndef create():\n    # Redirect to poem browser if no argument for poem type\n    if not request.args(0): redirect(URL(\'browse\'))\n\n    # Create form for 16 line ABAB rhyme\n    if (request.args(0) == \'abab\') or (request.args(0) == \'aabb\'):\n        form = SQLFORM.factory(db.poem, db.abab, fields=[\'title\', \'description\', \'body\', \'permission\']).process()\n        if request.args(0) == \'aabb\': form.vars.category = \'16 line AABB rhyme\'\n        if form.accepted:\n            # Do an insert if ABAB\n            id = db.poem.insert(**db.poem._filter_fields(form.vars))\n            db.abab.insert(poem_id = db.poem(id), body = form.vars.body)\n\n            # Create new mutex for this poem\n            db.mutex.insert(poem_id = id, editing = False, edit_timestamp = request.now)\n            # Create a new insert into permission table if poem was created Private (give owner permission)\n            if form.vars.permission == \'Private\':\n                db.permission.insert(user_id = auth.user, poem_id = id)\n            redirect(URL(\'poem\', args=id))\n    # Create form for haiku\n    elif request.args(0) == \'haiku\':\n        form = SQLFORM.factory(db.poem, db.haiku, fields=[\'title\', \'description\', \'start_haiku\', \'permission\']).process(onvalidation = create_haiku_check)\n        form.vars.category = \'Haiku\'\n        if form.accepted:\n            word_list = str(form.vars.start_haiku).split(\' \')\n            word_count = len(word_list)\n            syllable_count = 0\n            for word in word_list:\n                syllable_count += count_syllables(word)\n\n            id = db.poem.insert(**db.poem._filter_fields(form.vars))\n            db.haiku.insert(poem_id = id, start_haiku = form.vars.start_haiku, word_count = word_count, syllable_count = syllable_count, body_syllable_count = syllable_count)\n\n            # Create new mutex for this poem\n            db.mutex.insert(poem_id = id, editing = False, edit_timestamp = request.now)\n\n            # Create a new insert into permission table if poem was created Private (give owner permission)\n            if form.vars.permission == \'Private\':\n                db.permission.insert(user_id = auth.user, poem_id = form.vars.id)\n            redirect(URL(\'poem\', args=id))\n    else:\n        redirect(URL(\'browse\'))\n    return locals()\n\ndef create_haiku_check (form):\n\n    word_list = str(form.vars.start_haiku).split(\' \')\n    word_count = len(word_list)\n    syllable_count = 0\n    for word in word_list:\n        syllable_count += count_syllables(word)\n        if syllable_count > 5:\n            form.errors.start_haiku = \'Too many Syllables (5 Max)\'\n\n@auth.requires_login()\ndef edit():\n    # Redirect to poem browser if no argument for poem id\n    if not request.args(0): redirect(URL(\'browse\'))\n\n    # Load poem using the URL argument as poem id\n    poem_id = request.args(0,cast=int)\n    poem = db.poem(poem_id)\n\n    # Displaying ABAB\n    if poem.category == \'16 line ABAB rhyme\':\n        abab = db(db.abab.poem_id == poem.id).select().first()\n        lines = db(db.new_line.poem_id == poem.id).select(orderby=db.new_line.line_number)\n        contributors = db(db.new_line.poem_id == poem.id).select(db.new_line.author, groupby=db.new_line.author)\n    # Displaying Haiku\n    elif poem.category == \'Haiku\':\n        haiku = db(db.haiku.poem_id == poem.id).select().first()\n        words = db(db.new_word.poem_id == poem.id).select(orderby=db.new_word.word_number)\n        contributors = db(db.new_word.poem_id == poem.id).select(db.new_word.author, groupby=db.new_word.author)\n\n    # Redirect if current user is not owner of poem\n    if poem.author != auth.user.id:\n        session.flash = \'You are not the owner of this poem and cannot edit it\'\n        redirect(URL(\'poem\',args=poem.id))\n\n    # Create SQLFORM\n    form = SQLFORM(db.poem, record=poem, fields=[\'title\',\'description\']).process()\n    if poem.category == \'16 line ABAB rhyme\':\n        lines = db(db.new_line.poem_id == poem_id).select(orderby=db.new_line.line_number)\n        lines_form = []\n        line_form = []\n        for line in lines:\n            delete_form = FORM(INPUT(_name="line_id", _type=\'hidden\',value=line.id), INPUT(_type=\'submit\', _value = \'Delete\')).process(onvalidation=delete_line, next=URL(\'edit\', args=poem.id))\n            delete_form.vars.line = line.line\n            lines_form.append(delete_form)\n            line_form.append(line.line)\n    elif poem.category == \'Haiku\':\n        word = db(db.new_word.poem_id == poem_id).select(orderby=db.new_word.word_number)\n        words_form = []\n        word_form = []\n        for word in words:\n            delete_word_form = FORM(INPUT(_name="word_id", _type=\'hidden\',value=word.id), INPUT(_type=\'submit\', _value = \'Delete\')).process(onvalidation=delete_word, next=URL(\'edit\', args=poem.id))\n            delete_word_form.vars.word = word.word\n            words_form.append(delete_word_form)\n            word_form.append(word.word)\n\n    if form.accepted: redirect(URL(\'browse\'))\n    forms = FORM(\'Username: \',\n              INPUT(_name=\'username\'),\n              INPUT(_type=\'submit\'))\n    if forms.accepts(request,session):\n        added = False\n        for users in db(db.auth_user).select():\n            if(users.username == forms.vars.username):\n                for permission in db(db.permission).select():\n                    if(permission.user_id == users.id and permission.poem_id == poem.id):\n                        response.flash = \'Already Added\'\n                    else:\n                        added = True\n                if(added == True):\n                    db.permission.insert(user_id = users.id , poem_id = poem.id)\n                    response.flash = \'Added\'\n    return locals()\n\ndef delete_line(form):\n    print form.vars.line_id\n    row = db(db.new_line.id == form.vars.line_id).select().first()\n    row.update_record(line = \'\')\n\ndef delete_word(form):\n    print form.vars.word_id\n    word = db(db.new_word.id == form.vars.word_id).select().first()\n    word.update_record(word = \'\')\n\nKEY = \'mykey\'\n\n@auth.requires_login()\ndef add_check():\n    # Redirect to poem browser if no argument for poem id\n    if not request.args(0): redirect(URL(\'browse\'))\n    poem_id = request.args(0,cast=int)\n    poem = db.poem(poem_id)\n    mutex = db(db.mutex.poem_id == poem_id).select().first()\n\n    if request.vars.quit:\n        mutex.update_record(editing = False)\n    else:\n        # Check if poem is private and if current user has proper permissions, redirect if no permission\n        if poem.permission == \'Private\':\n            print \'private\'\n            print db(db.permission.poem_id == poem.id).select().first().user_id\n            print auth.user.id\n            if not db((db.permission.poem_id == poem.id) & (db.permission.user_id == auth.user_id)).select():\n                session.flash = \'You do not have permission to add to this poem\'\n                redirect(URL(\'poem\', args=poem.id))\n\n        # Check and redirect if another user is currently trying to add a line for this poem\n        if mutex.editing:\n            edit_timestamp = mutex.edit_timestamp\n            minutes_elapsed = (datetime.datetime.now() - edit_timestamp).total_seconds() / 60\n            if minutes_elapsed < 0.1:\n                session.flash = \'A user is currently adding a line!\'\n                redirect(URL(\'poem\', args=poem_id))\n\n        mutex.update_record(editing = True, edit_timestamp = request.now)\n        redirect(URL(\'add\', args=poem_id, hmac_key=KEY))\n        print \'should not get here\'\n\ndef unlocked_mutex():\n    print \'trying to unlock...\'\n    if not request.args(0): redirect(URL(\'browse\'))\n    poem_id = request.args(0,cast=int)\n    mutex = db(db.mutex.poem_id == poem_id).select().first()\n    if request.vars.quit:\n        mutex.update_record(editing = False)\n        print \'unlocked mutex?\'\n\n@auth.requires_login()\ndef add():\n    import urllib\n    import urllib2\n    from gluon.contrib import simplejson\n\n    if not URL.verify(request, hmac_key=KEY): redirect(URL(\'browse\'))\n    # Redirect to poem browser if no argument for poem id\n    if not request.args(0): redirect(URL(\'browse\'))\n\n    # Load poem using the URL argument as poem id\n    poem = db.poem(request.args(0,cast=int))\n\n    # Add form for ABAB\n    if (poem.category == \'16 line ABAB rhyme\') or (poem.category == \'16 line AABB rhyme\'):\n        abab = db(db.abab.poem_id == poem.id).select().first()\n        rows = db(db.new_line.poem_id == poem.id).select(orderby=db.new_line.line_number)\n        if poem.category == \'16 line ABAB rhyme\':\n        # Grab last word in the second to last line to rhyme by default (for ABAB rhyme scheme)\n            rhyme_word = \'\'\n            if abab.line_count == 2:\n                rhyme_word = abab.body.splitlines()[0].split(\' \')[-1]\n            elif abab.line_count == 3:\n                rhyme_word = abab.body.splitlines()[1].split(\' \')[-1]\n            else:\n                rhyme_line = db((db.new_line.poem_id == poem.id) & (db.new_line.line_number == abab.line_count-1)).select().first()\n                rhyme_word = rhyme_line.line.split(\' \')[-1]\n        elif poem.category == \'16 line AABB rhyme\':\n            rhyme_word = \'\'\n            if abab.line_count == 2:\n                rhyme_word = \'\'\n            else:\n                rhyme_line = db((db.new_line.poem_id == poem.id) & (db.new_line.line_number == abab.line_count)).select().first()\n                rhyme_word = rhyme_line.line.split(\' \')[-1]\n        #Get use the rhymebrain API\n        url = \'http://rhymebrain.com/talk\'\n        data = {}\n        data[\'function\'] = \'getRhymes\'\n        data[\'word\'] = rhyme_word\n        url_values = urllib.urlencode(data)\n        full_url = url + \'?\' + url_values\n        data = urllib2.urlopen(full_url)\n        result = data.read()\n        parsed_json = simplejson.loads(result)\n\n        sorted_syllables = [[] for x in range(11)]\n        for entry in parsed_json:\n            syllable_count = int(entry[\'syllables\'])\n            word = str(entry[\'word\'].encode(\'utf-8\',"ignore"))\n            sorted_syllables[syllable_count].append(word)\n\n        # Create SQLFORM for the user to add a single line as a String\n        form = SQLFORM(db.new_line, fields=[\'line\'])\n        form.vars.poem_id = poem.id\n        form.vars.line_number = abab.line_count + 1\n\n        form.process()\n        if form.accepted:\n            abab.update_record(line_count = abab.line_count + 1)\n            mutex = db(db.mutex.poem_id == poem.id).select().first()\n            mutex.update_record(editing = False)\n            redirect(URL(\'poem\', args=poem.id))\n    # Add form for Haiku\n    elif poem.category == \'Haiku\':\n        haiku = db(db.haiku.poem_id == poem.id).select().first()\n        words = db(db.new_word.poem_id == poem.id).select(orderby=db.new_word.word_number)\n        form = SQLFORM(db.new_word, fields=[\'word\'])\n        form.vars.poem_id = poem.id\n        form.vars.word_number = haiku.word_count + 1\n        syllables_left = 0\n        if haiku.syllable_count < 5:\n            form.vars.line_count = 1\n            syllables_left = 5 - haiku.syllable_count\n        elif 5 <= haiku.syllable_count <=11:\n            form.vars.line_count = 2\n            syllables_left = 12 - haiku.syllable_count\n        elif 11 < haiku.syllable_count:\n            form.vars.line_count = 3\n            syllables_left = 17 - haiku.syllable_count\n\n        form.process(onvalidation = add_haiku_check)\n        if form.accepted:\n            syllable_count = count_syllables(form.vars.word)\n            db.new_word(form.vars.id).update_record(syllables = syllable_count)\n            haiku.update_record(word_count = haiku.word_count + 1, syllable_count = haiku.syllable_count + syllable_count)\n            mutex = db(db.mutex.poem_id == poem.id).select().first()\n            mutex.update_record(editing=False)\n            redirect(URL(\'poem\', args=poem.id))\n\n    return locals()\n\ndef add_haiku_check(form):\n    haiku = db(db.haiku.poem_id == form.vars.poem_id).select().first()\n\n    syllables_left = 0\n    if haiku.syllable_count < 5:\n        syllables_left = 5 - haiku.syllable_count\n    elif 5 <= haiku.syllable_count <=11:\n        syllables_left = 12 - haiku.syllable_count\n    elif 11 < haiku.syllable_count:\n        syllables_left = 17 - haiku.syllable_count\n\n    if count_syllables(form.vars.word) > syllables_left:\n        form.errors.word = \'Word has too many syllables for this line\'\n\n@auth.requires_login()\ndef specialadd():\n    import urllib\n    import urllib2\n    from gluon.contrib import simplejson\n\n    # Redirect to poem browser if no argument for poem id\n    if not request.args(0): redirect(URL(\'browse\'))\n    lineNumber = request.args(1,cast = int)\n    # Load poem using the URL argument as poem id\n    poem = db.poem(request.args(0,cast=int))\n    rows = db(db.new_line.poem_id == poem.id).select(orderby=db.new_line.line_number)\n    check = db((db.new_line.poem_id == poem.id) & (db.new_line.line_number == request.args(1))).select().first()\n    if check:\n        if not check.line == \'\':\n            redirect(URL(\'browse\'))\n    # Check if poem is private and if current user has proper permissions, redirect if no permission\n    if poem.permission == \'Private\':\n        print \'private\'\n        print db(db.permission.poem_id == poem.id).select().first().user_id\n        print auth.user.id\n        if not db((db.permission.poem_id == poem.id) & (db.permission.user_id == auth.user_id)).select():\n            session.flash = \'You do not have permission to add to this poem\'\n            redirect(URL(\'poem\', args=poem.id))\n\n    # Add form for ABAB\n    if poem.category == \'16 line ABAB rhyme\':\n        abab = db(db.abab.poem_id == poem.id).select().first()\n        rows = db(db.new_line.poem_id == poem.id).select(orderby=db.new_line.line_number)\n\n        # Grab last word in the second to last line to rhyme by default (for ABAB rhyme scheme)\n        rhyme_word = \'\'\n        rhyme_line = db((db.new_line.poem_id == poem.id) & (db.new_line.line_number == lineNumber+2)).select().first()\n        test = False\n        if lineNumber-1 == 2:\n            rhyme_word = abab.body.splitlines()[0].split(\' \')[-1]\n        elif lineNumber-1 == 3:\n            rhyme_word = abab.body.splitlines()[1].split(\' \')[-1]\n        elif rhyme_line:\n            rhyme_word = rhyme_line.line.split(\' \')[-1]\n            test = True\n        else:\n            rhyme_line = db((db.new_line.poem_id == poem.id) & (db.new_line.line_number == lineNumber-2)).select().first()\n            rhyme_word = rhyme_line.line.split(\' \')[-1]\n\n\n        #Get use the rhymebrain API\n        url = \'http://rhymebrain.com/talk\'\n        data = {}\n        data[\'function\'] = \'getRhymes\'\n        data[\'word\'] = rhyme_word\n        url_values = urllib.urlencode(data)\n        full_url = url + \'?\' + url_values\n        data = urllib2.urlopen(full_url)\n        result = data.read()\n        parsed_json = simplejson.loads(result)\n\n        sorted_syllables = [[] for x in range(11)]\n        for entry in parsed_json:\n            syllable_count = int(entry[\'syllables\'])\n            word = str(entry[\'word\'].encode(\'utf-8\',"ignore"))\n            sorted_syllables[syllable_count].append(word)\n\n        # Create SQLFORM for the user to add a single line as a String\n        form = FORM(INPUT(_name = "line"),\n               INPUT(_type="submit",_value = "Add"))\n        if form.accepts(request,session):\n            response.flash = form.vars.line\n            if rows:\n                update = db((db.new_line.line == \'\') & (db.new_line.line_number == request.args(1))).select().first()\n                update.update_record(line = form.vars.line)\n                update.update_record(author = auth.user.id)\n                redirect(URL(\'poem\', args=poem.id))\n\n    # Add form for Haiku\n    elif poem.category == \'Haiku\':\n        haiku = db(db.haiku.poem_id == poem.id).select().first()\n        words = db(db.new_word.poem_id == poem.id).select(orderby=db.new_word.word_number)\n        # Create SQLFORM for the user to add a single line as a String\n        form = FORM(INPUT(_name = "word"),\n               INPUT(_type="submit",_value = "Add"))\n        if form.accepts(request,session):\n            response.flash = form.vars.word\n            if words:\n                update = db((db.new_word.word == \'\') & (db.new_word.word_number == request.args(1))).select().first()\n                update.update_record(word = form.vars.word)\n                update.update_record(author = auth.user.id)\n                redirect(URL(\'poem\', args=poem.id))\n    return locals()\n\ndef pick():\n    return locals()\n\n@auth.requires_login()\ndef profile():\n    user = auth.user\n    poem = db.poem\n    poems_owned = db(db.poem.author == user.id).select()\n    poems_contributed = db((db.new_line.author == user.id) & (db.poem.id == db.new_line.poem_id)).select(groupby=db.poem.id)\n    return locals()\n\nresponse._vars=response._caller(add)\n'
p7
sS'snapshot'
p8
(dp9
S'exception'
p10
(dp11
S'__module__'
p12
S"'urllib2'"
p13
sS'__getslice__'
p14
S"<method-wrapper '__getslice__' of URLError object>"
p15
sS'__str__'
p16
S"<bound method URLError.__str__ of URLError(gaierror(11001, 'getaddrinfo failed'),)>"
p17
sS'__reduce__'
p18
S'<built-in method __reduce__ of URLError object>'
p19
sS'__dict__'
p20
S"{'reason': gaierror(11001, 'getaddrinfo failed')}"
p21
sS'__sizeof__'
p22
S'<built-in method __sizeof__ of URLError object>'
p23
sS'__weakref__'
p24
S'None'
p25
sS'__init__'
p26
S"<bound method URLError.__init__ of URLError(gaierror(11001, 'getaddrinfo failed'),)>"
p27
sS'__setattr__'
p28
S"<method-wrapper '__setattr__' of URLError object>"
p29
sS'__reduce_ex__'
p30
S'<built-in method __reduce_ex__ of URLError object>'
p31
sS'__new__'
p32
S'<built-in method __new__ of type object>'
p33
sS'errno'
p34
S'None'
p35
sS'__format__'
p36
S'<built-in method __format__ of URLError object>'
p37
sS'__class__'
p38
S"<class 'urllib2.URLError'>"
p39
sS'filename'
p40
S'None'
p41
sS'__doc__'
p42
S'None'
p43
sS'__getitem__'
p44
S"<method-wrapper '__getitem__' of URLError object>"
p45
sS'__setstate__'
p46
S'<built-in method __setstate__ of URLError object>'
p47
sS'__getattribute__'
p48
S"<method-wrapper '__getattribute__' of URLError object>"
p49
sS'args'
p50
S"(gaierror(11001, 'getaddrinfo failed'),)"
p51
sS'reason'
p52
S"gaierror(11001, 'getaddrinfo failed')"
p53
sS'__subclasshook__'
p54
S'<built-in method __subclasshook__ of type object>'
p55
sS'__unicode__'
p56
S'<built-in method __unicode__ of URLError object>'
p57
sS'strerror'
p58
S'None'
p59
sS'__delattr__'
p60
S"<method-wrapper '__delattr__' of URLError object>"
p61
sS'__repr__'
p62
S"<method-wrapper '__repr__' of URLError object>"
p63
sS'__hash__'
p64
S"<method-wrapper '__hash__' of URLError object>"
p65
ssS'evalue'
p66
S'<urlopen error [Errno 11001] getaddrinfo failed>'
p67
sS'request'
p68
cgluon.html
XML_unpickle
p69
(S'sp`\x00\x00<div><table><tr><td style="font-weight:bold;vertical-align:top;">ajax</td><td style="vertical-align:top;">:</td><td><div>False</div></td></tr><tr><td style="font-weight:bold;vertical-align:top;">application</td><td style="vertical-align:top;">:</td><td><div>P2P</div></td></tr><tr><td style="font-weight:bold;vertical-align:top;">args</td><td style="vertical-align:top;">:</td><td><div><table><tr><td><div>43</div></td></tr></table></div></td></tr><tr><td style="font-weight:bold;vertical-align:top;">cid</td><td style="vertical-align:top;">:</td><td><div>None</div></td></tr><tr><td style="font-weight:bold;vertical-align:top;">client</td><td style="vertical-align:top;">:</td><td><div>127.0.0.1</div></td></tr><tr><td style="font-weight:bold;vertical-align:top;">controller</td><td style="vertical-align:top;">:</td><td><div>default</div></td></tr><tr><td style="font-weight:bold;vertical-align:top;">cookies</td><td style="vertical-align:top;">:</td><td><div><table><tr><td style="font-weight:bold;vertical-align:top;">session_id_admin</td><td style="vertical-align:top;">:</td><td><div>127.0.0.1-3ac20f63-df85-4c07-a945-36c73deb877d<table><tr><td style="font-weight:bold;vertical-align:top;">comment</td><td style="vertical-align:top;">:</td><td><div></div></td></tr><tr><td style="font-weight:bold;vertical-align:top;">domain</td><td style="vertical-align:top;">:</td><td><div></div></td></tr><tr><td style="font-weight:bold;vertical-align:top;">expires</td><td style="vertical-align:top;">:</td><td><div></div></td></tr><tr><td style="font-weight:bold;vertical-align:top;">httponly</td><td style="vertical-align:top;">:</td><td><div></div></td></tr><tr><td style="font-weight:bold;vertical-align:top;">max-age</td><td style="vertical-align:top;">:</td><td><div></div></td></tr><tr><td style="font-weight:bold;vertical-align:top;">path</td><td style="vertical-align:top;">:</td><td><div></div></td></tr><tr><td style="font-weight:bold;vertical-align:top;">secure</td><td style="vertical-align:top;">:</td><td><div></div></td></tr><tr><td style="font-weight:bold;vertical-align:top;">version</td><td style="vertical-align:top;">:</td><td><div></div></td></tr></table></div></td></tr><tr><td style="font-weight:bold;vertical-align:top;">session_id_p2p</td><td style="vertical-align:top;">:</td><td><div>127.0.0.1-25197d3b-1900-4fd5-8e6a-2db2f81b85fd<table><tr><td style="font-weight:bold;vertical-align:top;">comment</td><td style="vertical-align:top;">:</td><td><div></div></td></tr><tr><td style="font-weight:bold;vertical-align:top;">domain</td><td style="vertical-align:top;">:</td><td><div></div></td></tr><tr><td style="font-weight:bold;vertical-align:top;">expires</td><td style="vertical-align:top;">:</td><td><div></div></td></tr><tr><td style="font-weight:bold;vertical-align:top;">httponly</td><td style="vertical-align:top;">:</td><td><div></div></td></tr><tr><td style="font-weight:bold;vertical-align:top;">max-age</td><td style="vertical-align:top;">:</td><td><div></div></td></tr><tr><td style="font-weight:bold;vertical-align:top;">path</td><td style="vertical-align:top;">:</td><td><div></div></td></tr><tr><td style="font-weight:bold;vertical-align:top;">secure</td><td style="vertical-align:top;">:</td><td><div></div></td></tr><tr><td style="font-weight:bold;vertical-align:top;">version</td><td style="vertical-align:top;">:</td><td><div></div></td></tr></table></div></td></tr><tr><td style="font-weight:bold;vertical-align:top;">session_id_welcome</td><td style="vertical-align:top;">:</td><td><div>127.0.0.1-8b2723ce-1249-4d1a-a55c-a12507944f1f<table><tr><td style="font-weight:bold;vertical-align:top;">comment</td><td style="vertical-align:top;">:</td><td><div></div></td></tr><tr><td style="font-weight:bold;vertical-align:top;">domain</td><td style="vertical-align:top;">:</td><td><div></div></td></tr><tr><td style="font-weight:bold;vertical-align:top;">expires</td><td style="vertical-align:top;">:</td><td><div></div></td></tr><tr><td style="font-weight:bold;vertical-align:top;">httponly</td><td style="vertical-align:top;">:</td><td><div></div></td></tr><tr><td style="font-weight:bold;vertical-align:top;">max-age</td><td style="vertical-align:top;">:</td><td><div></div></td></tr><tr><td style="font-weight:bold;vertical-align:top;">path</td><td style="vertical-align:top;">:</td><td><div></div></td></tr><tr><td style="font-weight:bold;vertical-align:top;">secure</td><td style="vertical-align:top;">:</td><td><div></div></td></tr><tr><td style="font-weight:bold;vertical-align:top;">version</td><td style="vertical-align:top;">:</td><td><div></div></td></tr></table></div></td></tr></table></div></td></tr><tr><td style="font-weight:bold;vertical-align:top;">env</td><td style="vertical-align:top;">:</td><td><div><table><tr><td style="font-weight:bold;vertical-align:top;">HTTP_ACCEPT</td><td style="vertical-align:top;">:</td><td><div>text/html,application/xhtml+xml,application/xml;q=0.9,image/webp,*/*;q=0.8</div></td></tr><tr><td style="font-weight:bold;vertical-align:top;">HTTP_ACCEPT_ENCODING</td><td style="vertical-align:top;">:</td><td><div>gzip, deflate</div></td></tr><tr><td style="font-weight:bold;vertical-align:top;">HTTP_ACCEPT_LANGUAGE</td><td style="vertical-align:top;">:</td><td><div>en-US,en;q=0.8</div></td></tr><tr><td style="font-weight:bold;vertical-align:top;">HTTP_CACHE_CONTROL</td><td style="vertical-align:top;">:</td><td><div>max-age=0</div></td></tr><tr><td style="font-weight:bold;vertical-align:top;">HTTP_CONNECTION</td><td style="vertical-align:top;">:</td><td><div>keep-alive</div></td></tr><tr><td style="font-weight:bold;vertical-align:top;">HTTP_COOKIE</td><td style="vertical-align:top;">:</td><td><div>session_id_welcome=127.0.0.1-8b2723ce-1249-4d1a-a55c-a12507944f1f; session_id_p2p=127.0.0.1-25197d3b-1900-4fd5-8e6a-2db2f81b85fd; session_id_admin=127.0.0.1-3ac20f63-df85-4c07-a945-36c73deb877d</div></td></tr><tr><td style="font-weight:bold;vertical-align:top;">HTTP_HOST</td><td style="vertical-align:top;">:</td><td><div>127.0.0.1:8000</div></td></tr><tr><td style="font-weight:bold;vertical-align:top;">HTTP_REFERER</td><td style="vertical-align:top;">:</td><td><div>http://127.0.0.1:8000/P2P/default/poem/43</div></td></tr><tr><td style="font-weight:bold;vertical-align:top;">HTTP_UPGRADE_INSECURE_REQUESTS</td><td style="vertical-align:top;">:</td><td><div>1</div></td></tr><tr><td style="font-weight:bold;vertical-align:top;">HTTP_USER_AGENT</td><td style="vertical-align:top;">:</td><td><div>Mozilla/5.0 (Windows NT 10.0; WOW64) AppleWebKit/537.36 (KHTML, like Gecko) Chrome/48.0.2564.116 Safari/537.36</div></td></tr><tr><td style="font-weight:bold;vertical-align:top;">PATH_INFO</td><td style="vertical-align:top;">:</td><td><div>/P2P/default/add/43</div></td></tr><tr><td style="font-weight:bold;vertical-align:top;">QUERY_STRING</td><td style="vertical-align:top;">:</td><td><div>_signature=3f33f49647a66781911afc2d6b65a274713920f7</div></td></tr><tr><td style="font-weight:bold;vertical-align:top;">REMOTE_ADDR</td><td style="vertical-align:top;">:</td><td><div>127.0.0.1</div></td></tr><tr><td style="font-weight:bold;vertical-align:top;">REMOTE_PORT</td><td style="vertical-align:top;">:</td><td><div>57320</div></td></tr><tr><td style="font-weight:bold;vertical-align:top;">REQUEST_METHOD</td><td style="vertical-align:top;">:</td><td><div>GET</div></td></tr><tr><td style="font-weight:bold;vertical-align:top;">SCRIPT_NAME</td><td style="vertical-align:top;">:</td><td><div></div></td></tr><tr><td style="font-weight:bold;vertical-align:top;">SERVER_NAME</td><td style="vertical-align:top;">:</td><td><div>Kevin-VAIO</div></td></tr><tr><td style="font-weight:bold;vertical-align:top;">SERVER_PORT</td><td style="vertical-align:top;">:</td><td><div>8000</div></td></tr><tr><td style="font-weight:bold;vertical-align:top;">SERVER_PROTOCOL</td><td style="vertical-align:top;">:</td><td><div>HTTP/1.1</div></td></tr><tr><td style="font-weight:bold;vertical-align:top;">SERVER_SOFTWARE</td><td style="vertical-align:top;">:</td><td><div>Rocket 1.2.6</div></td></tr><tr><td style="font-weight:bold;vertical-align:top;">app_folders</td><td style="vertical-align:top;">:</td><td><div>set([&#x27;C:\\\\Users\\\\Kevin\\\\Desktop\\\\web2py\\\\applications\\\\admin\\\\&#x27;, &#x27;C:\\\\Users\\\\Kevin\\\\Desktop\\\\web2py\\\\applications\\\\P2P\\\\&#x27;, &#x27;C:\\\\Users\\\\Kevin\\\\Desktop\\\\web2py\\\\applications\\\\welcome\\\\&#x27;])</div></td></tr><tr><td style="font-weight:bold;vertical-align:top;">applications_parent</td><td style="vertical-align:top;">:</td><td><div>C:\\Users\\Kevin\\Desktop\\web2py</div></td></tr><tr><td style="font-weight:bold;vertical-align:top;">cmd_args</td><td style="vertical-align:top;">:</td><td><div><table></table></div></td></tr><tr><td style="font-weight:bold;vertical-align:top;">cmd_options</td><td style="vertical-align:top;">:</td><td><div>&lt;Values at 0x1be96c0: {&#x27;verbose&#x27;: False, &#x27;ip&#x27;: &#x27;127.0.0.1&#x27;, &#x27;debuglevel&#x27;: 30, &#x27;with_scheduler&#x27;: False, &#x27;ips&#x27;: [&#x27;fe80::38ac:3c7f:3f57:d455%8&#x27;, &#x27;2001:0:5ef5:79fb:38ac:3c7f:3f57:d455&#x27;, &#x27;192.168.43.170&#x27;, &#x27;fe80::6c2f:855d:fcb0:2777%9&#x27;], &#x27;shutdown_timeout&#x27;: 5, &#x27;taskbar&#x27;: False, &#x27;with_coverage&#x27;: False, &#x27;scheduler_groups&#x27;: None, &#x27;port&#x27;: 8000, &#x27;maxthreads&#x27;: None, &#x27;softcron&#x27;: False, &#x27;server_name&#x27;: &#x27;Kevin-VAIO&#x27;, &#x27;bpython&#x27;: False, &#x27;nogui&#x27;: False, &#x27;pid_filename&#x27;: &#x27;httpserver.pid&#x27;, &#x27;print_errors&#x27;: False, &#x27;extcron&#x27;: False, &#x27;runcron&#x27;: False, &#x27;run_system_tests&#x27;: False, &#x27;test&#x27;: None, &#x27;folder&#x27;: &#x27;C:\\\\Users\\\\Kevin\\\\Desktop\\\\web2py&#x27;, &#x27;config&#x27;: &#x27;&#x27;, &#x27;minthreads&#x27;: None, &#x27;shell&#x27;: None, &#x27;run&#x27;: &#x27;&#x27;, &#x27;log_filename&#x27;: &#x27;httpserver.log&#x27;, &#x27;profiler_dir&#x27;: None, &#x27;args&#x27;: [&#x27;&#x27;], &#x27;socket_timeout&#x27;: 5, &#x27;ssl_ca_certificate&#x27;: None, &#x27;scheduler&#x27;: None, &#x27;interfaces&#x27;: None, &#x27;ssl_private_key&#x27;: &#x27;&#x27;, &#x27;gae&#x27;: None, &#x27;password&#x27;: &#x27;&lt;ask&gt;&#x27;, &#x27;request_queue_size&#x27;: 5, &#x27;ssl_certificate&#x27;: &#x27;&#x27;, &#x27;cronjob&#x27;: False, &#x27;numthreads&#x27;: None, &#x27;quiet&#x27;: False, &#x27;import_models&#x27;: False, &#x27;timeout&#x27;: 10, &#x27;plain&#x27;: False, &#x27;nobanner&#x27;: False}&gt;</div></td></tr><tr><td style="font-weight:bold;vertical-align:top;">db_sessions</td><td style="vertical-align:top;">:</td><td><div>set([])</div></td></tr><tr><td style="font-weight:bold;vertical-align:top;">debugging</td><td style="vertical-align:top;">:</td><td><div>True</div></td></tr><tr><td style="font-weight:bold;vertical-align:top;">gluon_parent</td><td style="vertical-align:top;">:</td><td><div>C:\\Users\\Kevin\\Desktop\\web2py</div></td></tr><tr><td style="font-weight:bold;vertical-align:top;">http_accept</td><td style="vertical-align:top;">:</td><td><div>text/html,application/xhtml+xml,application/xml;q=0.9,image/webp,*/*;q=0.8</div></td></tr><tr><td style="font-weight:bold;vertical-align:top;">http_accept_encoding</td><td style="vertical-align:top;">:</td><td><div>gzip, deflate</div></td></tr><tr><td style="font-weight:bold;vertical-align:top;">http_accept_language</td><td style="vertical-align:top;">:</td><td><div>en-US,en;q=0.8</div></td></tr><tr><td style="font-weight:bold;vertical-align:top;">http_cache_control</td><td style="vertical-align:top;">:</td><td><div>max-age=0</div></td></tr><tr><td style="font-weight:bold;vertical-align:top;">http_connection</td><td style="vertical-align:top;">:</td><td><div>keep-alive</div></td></tr><tr><td style="font-weight:bold;vertical-align:top;">http_cookie</td><td style="vertical-align:top;">:</td><td><div>session_id_welcome=127.0.0.1-8b2723ce-1249-4d1a-a55c-a12507944f1f; session_id_p2p=127.0.0.1-25197d3b-1900-4fd5-8e6a-2db2f81b85fd; session_id_admin=127.0.0.1-3ac20f63-df85-4c07-a945-36c73deb877d</div></td></tr><tr><td style="font-weight:bold;vertical-align:top;">http_host</td><td style="vertical-align:top;">:</td><td><div>127.0.0.1:8000</div></td></tr><tr><td style="font-weight:bold;vertical-align:top;">http_referer</td><td style="vertical-align:top;">:</td><td><div>http://127.0.0.1:8000/P2P/default/poem/43</div></td></tr><tr><td style="font-weight:bold;vertical-align:top;">http_upgrade_insecure_requests</td><td style="vertical-align:top;">:</td><td><div>1</div></td></tr><tr><td style="font-weight:bold;vertical-align:top;">http_user_agent</td><td style="vertical-align:top;">:</td><td><div>Mozilla/5.0 (Windows NT 10.0; WOW64) AppleWebKit/537.36 (KHTML, like Gecko) Chrome/48.0.2564.116 Safari/537.36</div></td></tr><tr><td style="font-weight:bold;vertical-align:top;">is_jython</td><td style="vertical-align:top;">:</td><td><div>False</div></td></tr><tr><td style="font-weight:bold;vertical-align:top;">is_pypy</td><td style="vertical-align:top;">:</td><td><div>False</div></td></tr><tr><td style="font-weight:bold;vertical-align:top;">is_source</td><td style="vertical-align:top;">:</td><td><div>False</div></td></tr><tr><td style="font-weight:bold;vertical-align:top;">local_hosts</td><td style="vertical-align:top;">:</td><td><div><table><tr><td><div>192.168.43.170</div></td></tr><tr><td><div>2001:0:5ef5:79fb:38ac:3c7f:3f57:d455</div></td></tr><tr><td><div>::ffff:127.0.0.1</div></td></tr><tr><td><div>::1</div></td></tr><tr><td><div>Kevin-VAIO</div></td></tr><tr><td><div>fe80::38ac:3c7f:3f57:d455%8</div></td></tr><tr><td><div>fe80::6c2f:855d:fcb0:2777%9</div></td></tr><tr><td><div>127.0.0.1</div></td></tr></table></div></td></tr><tr><td style="font-weight:bold;vertical-align:top;">path_info</td><td style="vertical-align:top;">:</td><td><div>/P2P/default/add/43</div></td></tr><tr><td style="font-weight:bold;vertical-align:top;">query_string</td><td style="vertical-align:top;">:</td><td><div>_signature=3f33f49647a66781911afc2d6b65a274713920f7</div></td></tr><tr><td style="font-weight:bold;vertical-align:top;">remote_addr</td><td style="vertical-align:top;">:</td><td><div>127.0.0.1</div></td></tr><tr><td style="font-weight:bold;vertical-align:top;">remote_port</td><td style="vertical-align:top;">:</td><td><div>57320</div></td></tr><tr><td style="font-weight:bold;vertical-align:top;">request_method</td><td style="vertical-align:top;">:</td><td><div>GET</div></td></tr><tr><td style="font-weight:bold;vertical-align:top;">request_uri</td><td style="vertical-align:top;">:</td><td><div>/P2P/default/add/43?_signature=3f33f49647a66781911afc2d6b65a274713920f7</div></td></tr><tr><td style="font-weight:bold;vertical-align:top;">script_name</td><td style="vertical-align:top;">:</td><td><div></div></td></tr><tr><td style="font-weight:bold;vertical-align:top;">server_name</td><td style="vertical-align:top;">:</td><td><div>Kevin-VAIO</div></td></tr><tr><td style="font-weight:bold;vertical-align:top;">server_port</td><td style="vertical-align:top;">:</td><td><div>8000</div></td></tr><tr><td style="font-weight:bold;vertical-align:top;">server_protocol</td><td style="vertical-align:top;">:</td><td><div>HTTP/1.1</div></td></tr><tr><td style="font-weight:bold;vertical-align:top;">server_software</td><td style="vertical-align:top;">:</td><td><div>Rocket 1.2.6</div></td></tr><tr><td style="font-weight:bold;vertical-align:top;">web2py_path</td><td style="vertical-align:top;">:</td><td><div>C:\\Users\\Kevin\\Desktop\\web2py</div></td></tr><tr><td style="font-weight:bold;vertical-align:top;">web2py_version</td><td style="vertical-align:top;">:</td><td><div>2.13.4-stable+timestamp.2015.12.26.04.59.39</div></td></tr><tr><td style="font-weight:bold;vertical-align:top;">wsgi.errors</td><td style="vertical-align:top;">:</td><td><div>&lt;open file &#x27;&lt;stderr&gt;&#x27;, mode &#x27;w&#x27; at 0x00E3D0D0&gt;</div></td></tr><tr><td style="font-weight:bold;vertical-align:top;">wsgi.file_wrapper</td><td style="vertical-align:top;">:</td><td><div>&lt;class wsgiref.util.FileWrapper at 0x01AE7308&gt;</div></td></tr><tr><td style="font-weight:bold;vertical-align:top;">wsgi.input</td><td style="vertical-align:top;">:</td><td><div>&lt;socket._fileobject object at 0x042833F0&gt;</div></td></tr><tr><td style="font-weight:bold;vertical-align:top;">wsgi.multiprocess</td><td style="vertical-align:top;">:</td><td><div>False</div></td></tr><tr><td style="font-weight:bold;vertical-align:top;">wsgi.multithread</td><td style="vertical-align:top;">:</td><td><div>True</div></td></tr><tr><td style="font-weight:bold;vertical-align:top;">wsgi.run_once</td><td style="vertical-align:top;">:</td><td><div>False</div></td></tr><tr><td style="font-weight:bold;vertical-align:top;">wsgi.url_scheme</td><td style="vertical-align:top;">:</td><td><div>http</div></td></tr><tr><td style="font-weight:bold;vertical-align:top;">wsgi.version</td><td style="vertical-align:top;">:</td><td><div><table><tr><td><div>1</div></td></tr><tr><td><div>0</div></td></tr></table></div></td></tr><tr><td style="font-weight:bold;vertical-align:top;">wsgi_errors</td><td style="vertical-align:top;">:</td><td><div>&lt;open file &#x27;&lt;stderr&gt;&#x27;, mode &#x27;w&#x27; at 0x00E3D0D0&gt;</div></td></tr><tr><td style="font-weight:bold;vertical-align:top;">wsgi_file_wrapper</td><td style="vertical-align:top;">:</td><td><div>&lt;class wsgiref.util.FileWrapper at 0x01AE7308&gt;</div></td></tr><tr><td style="font-weight:bold;vertical-align:top;">wsgi_input</td><td style="vertical-align:top;">:</td><td><div>&lt;socket._fileobject object at 0x042833F0&gt;</div></td></tr><tr><td style="font-weight:bold;vertical-align:top;">wsgi_multiprocess</td><td style="vertical-align:top;">:</td><td><div>False</div></td></tr><tr><td style="font-weight:bold;vertical-align:top;">wsgi_multithread</td><td style="vertical-align:top;">:</td><td><div>True</div></td></tr><tr><td style="font-weight:bold;vertical-align:top;">wsgi_run_once</td><td style="vertical-align:top;">:</td><td><div>False</div></td></tr><tr><td style="font-weight:bold;vertical-align:top;">wsgi_url_scheme</td><td style="vertical-align:top;">:</td><td><div>http</div></td></tr><tr><td style="font-weight:bold;vertical-align:top;">wsgi_version</td><td style="vertical-align:top;">:</td><td><div><table><tr><td><div>1</div></td></tr><tr><td><div>0</div></td></tr></table></div></td></tr></table></div></td></tr><tr><td style="font-weight:bold;vertical-align:top;">extension</td><td style="vertical-align:top;">:</td><td><div>html</div></td></tr><tr><td style="font-weight:bold;vertical-align:top;">folder</td><td style="vertical-align:top;">:</td><td><div>C:\\Users\\Kevin\\Desktop\\web2py\\applications\\P2P\\</div></td></tr><tr><td style="font-weight:bold;vertical-align:top;">function</td><td style="vertical-align:top;">:</td><td><div>add</div></td></tr><tr><td style="font-weight:bold;vertical-align:top;">global_settings</td><td style="vertical-align:top;">:</td><td><div><table><tr><td style="font-weight:bold;vertical-align:top;">app_folders</td><td style="vertical-align:top;">:</td><td><div>set([&#x27;C:\\\\Users\\\\Kevin\\\\Desktop\\\\web2py\\\\applications\\\\admin\\\\&#x27;, &#x27;C:\\\\Users\\\\Kevin\\\\Desktop\\\\web2py\\\\applications\\\\P2P\\\\&#x27;, &#x27;C:\\\\Users\\\\Kevin\\\\Desktop\\\\web2py\\\\applications\\\\welcome\\\\&#x27;])</div></td></tr><tr><td style="font-weight:bold;vertical-align:top;">applications_parent</td><td style="vertical-align:top;">:</td><td><div>C:\\Users\\Kevin\\Desktop\\web2py</div></td></tr><tr><td style="font-weight:bold;vertical-align:top;">cmd_args</td><td style="vertical-align:top;">:</td><td><div><table></table></div></td></tr><tr><td style="font-weight:bold;vertical-align:top;">cmd_options</td><td style="vertical-align:top;">:</td><td><div>&lt;Values at 0x1be96c0: {&#x27;verbose&#x27;: False, &#x27;ip&#x27;: &#x27;127.0.0.1&#x27;, &#x27;debuglevel&#x27;: 30, &#x27;with_scheduler&#x27;: False, &#x27;ips&#x27;: [&#x27;fe80::38ac:3c7f:3f57:d455%8&#x27;, &#x27;2001:0:5ef5:79fb:38ac:3c7f:3f57:d455&#x27;, &#x27;192.168.43.170&#x27;, &#x27;fe80::6c2f:855d:fcb0:2777%9&#x27;], &#x27;shutdown_timeout&#x27;: 5, &#x27;taskbar&#x27;: False, &#x27;with_coverage&#x27;: False, &#x27;scheduler_groups&#x27;: None, &#x27;port&#x27;: 8000, &#x27;maxthreads&#x27;: None, &#x27;softcron&#x27;: False, &#x27;server_name&#x27;: &#x27;Kevin-VAIO&#x27;, &#x27;bpython&#x27;: False, &#x27;nogui&#x27;: False, &#x27;pid_filename&#x27;: &#x27;httpserver.pid&#x27;, &#x27;print_errors&#x27;: False, &#x27;extcron&#x27;: False, &#x27;runcron&#x27;: False, &#x27;run_system_tests&#x27;: False, &#x27;test&#x27;: None, &#x27;folder&#x27;: &#x27;C:\\\\Users\\\\Kevin\\\\Desktop\\\\web2py&#x27;, &#x27;config&#x27;: &#x27;&#x27;, &#x27;minthreads&#x27;: None, &#x27;shell&#x27;: None, &#x27;run&#x27;: &#x27;&#x27;, &#x27;log_filename&#x27;: &#x27;httpserver.log&#x27;, &#x27;profiler_dir&#x27;: None, &#x27;args&#x27;: [&#x27;&#x27;], &#x27;socket_timeout&#x27;: 5, &#x27;ssl_ca_certificate&#x27;: None, &#x27;scheduler&#x27;: None, &#x27;interfaces&#x27;: None, &#x27;ssl_private_key&#x27;: &#x27;&#x27;, &#x27;gae&#x27;: None, &#x27;password&#x27;: &#x27;&lt;ask&gt;&#x27;, &#x27;request_queue_size&#x27;: 5, &#x27;ssl_certificate&#x27;: &#x27;&#x27;, &#x27;cronjob&#x27;: False, &#x27;numthreads&#x27;: None, &#x27;quiet&#x27;: False, &#x27;import_models&#x27;: False, &#x27;timeout&#x27;: 10, &#x27;plain&#x27;: False, &#x27;nobanner&#x27;: False}&gt;</div></td></tr><tr><td style="font-weight:bold;vertical-align:top;">db_sessions</td><td style="vertical-align:top;">:</td><td><div>set([])</div></td></tr><tr><td style="font-weight:bold;vertical-align:top;">debugging</td><td style="vertical-align:top;">:</td><td><div>True</div></td></tr><tr><td style="font-weight:bold;vertical-align:top;">gluon_parent</td><td style="vertical-align:top;">:</td><td><div>C:\\Users\\Kevin\\Desktop\\web2py</div></td></tr><tr><td style="font-weight:bold;vertical-align:top;">is_jython</td><td style="vertical-align:top;">:</td><td><div>False</div></td></tr><tr><td style="font-weight:bold;vertical-align:top;">is_pypy</td><td style="vertical-align:top;">:</td><td><div>False</div></td></tr><tr><td style="font-weight:bold;vertical-align:top;">is_source</td><td style="vertical-align:top;">:</td><td><div>False</div></td></tr><tr><td style="font-weight:bold;vertical-align:top;">local_hosts</td><td style="vertical-align:top;">:</td><td><div><table><tr><td><div>192.168.43.170</div></td></tr><tr><td><div>2001:0:5ef5:79fb:38ac:3c7f:3f57:d455</div></td></tr><tr><td><div>::ffff:127.0.0.1</div></td></tr><tr><td><div>::1</div></td></tr><tr><td><div>Kevin-VAIO</div></td></tr><tr><td><div>fe80::38ac:3c7f:3f57:d455%8</div></td></tr><tr><td><div>fe80::6c2f:855d:fcb0:2777%9</div></td></tr><tr><td><div>127.0.0.1</div></td></tr></table></div></td></tr><tr><td style="font-weight:bold;vertical-align:top;">web2py_version</td><td style="vertical-align:top;">:</td><td><div>2.13.4-stable+timestamp.2015.12.26.04.59.39</div></td></tr></table></div></td></tr><tr><td style="font-weight:bold;vertical-align:top;">is_https</td><td style="vertical-align:top;">:</td><td><div>False</div></td></tr><tr><td style="font-weight:bold;vertical-align:top;">is_local</td><td style="vertical-align:top;">:</td><td><div>True</div></td></tr><tr><td style="font-weight:bold;vertical-align:top;">is_restful</td><td style="vertical-align:top;">:</td><td><div>False</div></td></tr><tr><td style="font-weight:bold;vertical-align:top;">is_scheduler</td><td style="vertical-align:top;">:</td><td><div>False</div></td></tr><tr><td style="font-weight:bold;vertical-align:top;">is_shell</td><td style="vertical-align:top;">:</td><td><div>False</div></td></tr><tr><td style="font-weight:bold;vertical-align:top;">now</td><td style="vertical-align:top;">:</td><td><div>datetime.datetime(2016, 2, 25, 0, 52, 48, 379000)</div></td></tr><tr><td style="font-weight:bold;vertical-align:top;">raw_args</td><td style="vertical-align:top;">:</td><td><div>43</div></td></tr><tr><td style="font-weight:bold;vertical-align:top;">raw_extension</td><td style="vertical-align:top;">:</td><td><div>None</div></td></tr><tr><td style="font-weight:bold;vertical-align:top;">url</td><td style="vertical-align:top;">:</td><td><div>/P2P/default/add/43</div></td></tr><tr><td style="font-weight:bold;vertical-align:top;">utcnow</td><td style="vertical-align:top;">:</td><td><div>datetime.datetime(2016, 2, 25, 8, 52, 48, 379000)</div></td></tr><tr><td style="font-weight:bold;vertical-align:top;">wsgi</td><td style="vertical-align:top;">:</td><td><div>&lt;gluon.main.LazyWSGI object at 0x09243090&gt;</div></td></tr></table></div>'
tRp70
sS'frames'
p71
(lp72
(dp73
S'file'
p74
S'C:\\Users\\Kevin\\Desktop\\web2py\\gluon\\restricted.py'
p75
sS'dump'
p76
(dp77
S'environment'
p78
S"{'A': <class 'gluon.html.A'>, 'ANY_OF': <class 'gluon.validators.ANY_OF'>, 'ASSIGNJS': <function ASSIGNJS>, 'AppConfig': <function AppConfig>, 'Auth': <class 'gluon.tools.Auth'>, 'B': <class 'gluon.html.B'>, 'BEAUTIFY': <class 'gluon.html.BEAUTIFY'>, 'BODY': <class 'gluon.html.BODY'>, 'BR': <class 'gluon.html.BR'>, 'BUTTON': <class 'gluon.html.BUTTON'>, ...}"
p79
sS'ccode'
p80
S'<code object <module> at 04878AD0, file "C:\\User...pplications\\P2P\\controllers/default.py", line 10>'
p81
ssS'lnum'
p82
I227
sS'lines'
p83
(dp84
I224
S'            ccode = code'
p85
sI225
S'        else:'
p86
sI226
S'            ccode = compile2(code, layer)'
p87
sI227
S'        exec ccode in environment'
p88
sI228
S'    except HTTP:'
p89
sI229
S'        raise'
p90
sI230
S'    except RestrictedError:'
p91
sI231
S'        # do not encapsulate (obfuscate) the original RestrictedError'
p92
sI222
S'    try:'
p93
sI223
S'        if isinstance(code, types.CodeType):'
p94
ssS'call'
p95
S"(code='# -*- coding: utf-8 -*-\\n# this file is released ...n locals()\\n\\nresponse._vars=response._caller(add)\\n', environment={'A': <class 'gluon.html.A'>, 'ANY_OF': <class 'gluon.validators.ANY_OF'>, 'ASSIGNJS': <function ASSIGNJS>, 'AppConfig': <function AppConfig>, 'Auth': <class 'gluon.tools.Auth'>, 'B': <class 'gluon.html.B'>, 'BEAUTIFY': <class 'gluon.html.BEAUTIFY'>, 'BODY': <class 'gluon.html.BODY'>, 'BR': <class 'gluon.html.BR'>, 'BUTTON': <class 'gluon.html.BUTTON'>, ...}, layer=r'C:\\Users\\Kevin\\Desktop\\web2py\\applications\\P2P\\controllers/default.py')"
p96
sS'func'
p97
S'restricted'
p98
sa(dp99
g74
S'C:\\Users\\Kevin\\Desktop\\web2py\\applications\\P2P\\controllers\\default.py'
p100
sg76
(dp101
sg82
I455
sg83
(dp102
I448
S'def profile():'
p103
sI449
S'    user = auth.user'
p104
sI450
S'    poem = db.poem'
p105
sI451
S'    poems_owned = db(db.poem.author == user.id).select()'
p106
sI452
S'    poems_contributed = db((db.new_line.author == user.id) & (db.poem.id == db.new_line.poem_id)).select(groupby=db.poem.id)'
p107
sI453
S'    return locals()'
p108
sI444
S'def pick():'
p109
sI445
S'    return locals()'
p110
sI446
S''
sI447
S'@auth.requires_login()'
p111
ssg95
S'()'
p112
sg97
S'<module>'
p113
sa(dp114
g74
S'C:\\Users\\Kevin\\Desktop\\web2py\\gluon\\globals.py'
p115
sg76
(dp116
S'self'
p117
S'undefined'
p118
sS'f'
S'<function add>'
p119
ssg82
I412
sg83
(dp120
I416
S"        self.generic_patterns = ['*']"
p121
sI407
S"        self.flash = ''            # used by the default view layout"
p122
sI408
S'        self.meta = Storage()      # used by web2py_ajax.html'
p123
sI409
S'        self.menu = []             # used by the default view layout'
p124
sI410
S'        self.files = []            # used by web2py_ajax.html'
p125
sI411
S'        self._vars = None'
p126
sI412
S'        self._caller = lambda f: f()'
p127
sI413
S'        self._view_environment = None'
p128
sI414
S'        self._custom_commit = None'
p129
sI415
S'        self._custom_rollback = None'
p130
ssg95
S'(f=<function add>)'
p131
sg97
S'<lambda>'
p132
sa(dp133
g74
S'C:\\Users\\Kevin\\Desktop\\web2py\\gluon\\tools.py'
p134
sg76
(dp135
S'action'
p136
S'<function add>'
p137
sS'a'
S'()'
p138
sS'b'
S'{}'
p139
ssg82
I4236
sg83
(dp140
I4231
S'                    flag = condition'
p141
sI4232
S'                if not flag:'
p142
sI4233
S'                    current.session.flash = self.messages.access_denied'
p143
sI4234
S'                    return call_or_redirect('
p144
sI4235
S'                        self.settings.on_failed_authorization)'
p145
sI4236
S'                return action(*a, **b)'
p146
sI4237
S'            f.__doc__ = action.__doc__'
p147
sI4238
S'            f.__name__ = action.__name__'
p148
sI4239
S'            f.__dict__.update(action.__dict__)'
p149
sI4240
S'            return f'
p150
ssg95
S'(*a=(), **b={})'
p151
sg97
S'f'
sa(dp152
g74
S'C:\\Users\\Kevin\\Desktop\\web2py\\applications\\P2P\\controllers\\default.py'
p153
sg76
(dp154
S'urllib2.urlopen'
p155
S'<function urlopen>'
p156
sS'data'
p157
S"{'function': 'getRhymes', 'word': ''}"
p158
sS'urllib2'
p159
S"<module 'urllib2' from 'C:\\Users\\Kevin\\Desktop\\web2py\\library.zip\\urllib2.pyc'>"
p160
sS'full_url'
p161
S"'http://rhymebrain.com/talk?function=getRhymes&word='"
p162
ssg82
I290
sg83
(dp163
I288
S'        url_values = urllib.urlencode(data)'
p164
sI289
S"        full_url = url + '?' + url_values"
p165
sI290
S'        data = urllib2.urlopen(full_url)'
p166
sI291
S'        result = data.read()'
p167
sI292
S'        parsed_json = simplejson.loads(result)'
p168
sI293
S''
sI294
S'        sorted_syllables = [[] for x in range(11)]'
p169
sI285
S'        data = {}'
p170
sI286
S"        data['function'] = 'getRhymes'"
p171
sI287
S"        data['word'] = rhyme_word"
p172
ssg95
S'()'
p173
sg97
S'add'
p174
sa(dp175
g74
S'C:\\Users\\Kevin\\Desktop\\web2py\\urllib2.py'
p176
sg76
(dp177
sg82
I154
sg83
(dp178
sg95
S"(url='http://rhymebrain.com/talk?function=getRhymes&word=', data=None, timeout=<object object>, cafile=None, capath=None, cadefault=False, context=None)"
p179
sg97
S'urlopen'
p180
sa(dp181
g74
S'C:\\Users\\Kevin\\Desktop\\web2py\\urllib2.py'
p182
sg76
(dp183
sg82
I431
sg83
(dp184
sg95
S"(self=<urllib2.OpenerDirector instance>, fullurl='http://rhymebrain.com/talk?function=getRhymes&word=', data=None, timeout=<object object>)"
p185
sg97
S'open'
p186
sa(dp187
g74
S'C:\\Users\\Kevin\\Desktop\\web2py\\urllib2.py'
p188
sg76
(dp189
sg82
I449
sg83
(dp190
sg95
S'(self=<urllib2.OpenerDirector instance>, req=<urllib2.Request instance>, data=None)'
p191
sg97
S'_open'
p192
sa(dp193
g74
S'C:\\Users\\Kevin\\Desktop\\web2py\\urllib2.py'
p194
sg76
(dp195
sg82
I409
sg83
(dp196
sg95
S"(self=<urllib2.OpenerDirector instance>, chain={'file': [<urllib2.FileHandler instance>], 'ftp': [<urllib2.FTPHandler instance>], 'http': [<urllib2.HTTPHandler instance>], 'https': [<urllib2.HTTPSHandler instance>], 'unknown': [<urllib2.UnknownHandler instance>]}, kind='http', meth_name='http_open', *args=(<urllib2.Request instance>,))"
p197
sg97
S'_call_chain'
p198
sa(dp199
g74
S'C:\\Users\\Kevin\\Desktop\\web2py\\urllib2.py'
p200
sg76
(dp201
sg82
I1227
sg83
(dp202
sg95
S'(self=<urllib2.HTTPHandler instance>, req=<urllib2.Request instance>)'
p203
sg97
S'http_open'
p204
sa(dp205
g74
S'C:\\Users\\Kevin\\Desktop\\web2py\\urllib2.py'
p206
sg76
(dp207
sg82
I1197
sg83
(dp208
sg95
S'(self=<urllib2.HTTPHandler instance>, http_class=<class httplib.HTTPConnection>, req=<urllib2.Request instance>, **http_conn_args={})'
p209
sg97
S'do_open'
p210
sasS'pyver'
p211
S'Python 2.7.9: C:\\Users\\Kevin\\Desktop\\web2py\\web2py.exe (prefix: )'
p212
sS'session'
p213
g69
(S'ss\t\x00\x00<div><table><tr><td style="font-weight:bold;vertical-align:top;">auth</td><td style="vertical-align:top;">:</td><td><div><table><tr><td style="font-weight:bold;vertical-align:top;">expiration</td><td style="vertical-align:top;">:</td><td><div>3600</div></td></tr><tr><td style="font-weight:bold;vertical-align:top;">hmac_key</td><td style="vertical-align:top;">:</td><td><div>6da19e01-32b1-4265-80c8-b2cc128f53d9</div></td></tr><tr><td style="font-weight:bold;vertical-align:top;">last_visit</td><td style="vertical-align:top;">:</td><td><div>datetime.datetime(2016, 2, 25, 0, 49, 33, 812000)</div></td></tr><tr><td style="font-weight:bold;vertical-align:top;">remember_me</td><td style="vertical-align:top;">:</td><td><div>False</div></td></tr><tr><td style="font-weight:bold;vertical-align:top;">user</td><td style="vertical-align:top;">:</td><td><div><table><tr><td style="font-weight:bold;vertical-align:top;">email</td><td style="vertical-align:top;">:</td><td><div>default@email.com</div></td></tr><tr><td style="font-weight:bold;vertical-align:top;">first_name</td><td style="vertical-align:top;">:</td><td><div>default</div></td></tr><tr><td style="font-weight:bold;vertical-align:top;">id</td><td style="vertical-align:top;">:</td><td><div>4L</div></td></tr><tr><td style="font-weight:bold;vertical-align:top;">last_name</td><td style="vertical-align:top;">:</td><td><div>default</div></td></tr><tr><td style="font-weight:bold;vertical-align:top;">registration_id</td><td style="vertical-align:top;">:</td><td><div></div></td></tr><tr><td style="font-weight:bold;vertical-align:top;">registration_key</td><td style="vertical-align:top;">:</td><td><div></div></td></tr><tr><td style="font-weight:bold;vertical-align:top;">reset_password_key</td><td style="vertical-align:top;">:</td><td><div></div></td></tr><tr><td style="font-weight:bold;vertical-align:top;">username</td><td style="vertical-align:top;">:</td><td><div>default</div></td></tr></table></div></td></tr><tr><td style="font-weight:bold;vertical-align:top;">user_groups</td><td style="vertical-align:top;">:</td><td><div><table><tr><td style="font-weight:bold;vertical-align:top;">4</td><td style="vertical-align:top;">:</td><td><div>user_4</div></td></tr></table></div></td></tr></table></div></td></tr><tr><td style="font-weight:bold;vertical-align:top;">flash</td><td style="vertical-align:top;">:</td><td><div>None</div></td></tr></table></div>'
tRp214
sS'etype'
p215
S"<class 'urllib2.URLError'>"
p216
sS'date'
p217
S'Thu Feb 25 00:52:59 2016'
p218
sS'response'
p219
g69
(S'sP)\x00\x00<div><table><tr><td style="font-weight:bold;vertical-align:top;">body</td><td style="vertical-align:top;">:</td><td><div>&lt;cStringIO.StringO object at 0x049135C0&gt;</div></td></tr><tr><td style="font-weight:bold;vertical-align:top;">cookies</td><td style="vertical-align:top;">:</td><td><div><table><tr><td style="font-weight:bold;vertical-align:top;">session_id_p2p</td><td style="vertical-align:top;">:</td><td><div>127.0.0.1-25197d3b-1900-4fd5-8e6a-2db2f81b85fd<table><tr><td style="font-weight:bold;vertical-align:top;">comment</td><td style="vertical-align:top;">:</td><td><div></div></td></tr><tr><td style="font-weight:bold;vertical-align:top;">domain</td><td style="vertical-align:top;">:</td><td><div></div></td></tr><tr><td style="font-weight:bold;vertical-align:top;">expires</td><td style="vertical-align:top;">:</td><td><div></div></td></tr><tr><td style="font-weight:bold;vertical-align:top;">httponly</td><td style="vertical-align:top;">:</td><td><div></div></td></tr><tr><td style="font-weight:bold;vertical-align:top;">max-age</td><td style="vertical-align:top;">:</td><td><div></div></td></tr><tr><td style="font-weight:bold;vertical-align:top;">path</td><td style="vertical-align:top;">:</td><td><div>/</div></td></tr><tr><td style="font-weight:bold;vertical-align:top;">secure</td><td style="vertical-align:top;">:</td><td><div></div></td></tr><tr><td style="font-weight:bold;vertical-align:top;">version</td><td style="vertical-align:top;">:</td><td><div></div></td></tr></table></div></td></tr></table></div></td></tr><tr><td style="font-weight:bold;vertical-align:top;">delimiters</td><td style="vertical-align:top;">:</td><td><div><table><tr><td><div>{{</div></td></tr><tr><td><div>}}</div></td></tr></table></div></td></tr><tr><td style="font-weight:bold;vertical-align:top;">files</td><td style="vertical-align:top;">:</td><td><div><table></table></div></td></tr><tr><td style="font-weight:bold;vertical-align:top;">flash</td><td style="vertical-align:top;">:</td><td><div></div></td></tr><tr><td style="font-weight:bold;vertical-align:top;">form_label_separator</td><td style="vertical-align:top;">:</td><td><div></div></td></tr><tr><td style="font-weight:bold;vertical-align:top;">formstyle</td><td style="vertical-align:top;">:</td><td><div>bootstrap3_inline</div></td></tr><tr><td style="font-weight:bold;vertical-align:top;">generic_patterns</td><td style="vertical-align:top;">:</td><td><div><table><tr><td><div>*</div></td></tr></table></div></td></tr><tr><td style="font-weight:bold;vertical-align:top;">google_analytics_id</td><td style="vertical-align:top;">:</td><td><div>None</div></td></tr><tr><td style="font-weight:bold;vertical-align:top;">headers</td><td style="vertical-align:top;">:</td><td><div><table><tr><td style="font-weight:bold;vertical-align:top;">X-Powered-By</td><td style="vertical-align:top;">:</td><td><div>web2py</div></td></tr></table></div></td></tr><tr><td style="font-weight:bold;vertical-align:top;">logo</td><td style="vertical-align:top;">:</td><td><div><a class="navbar-brand" href="index" id="web2py-logo"><b>web<span>2</span>py</b>&trade;&nbsp;</a></div></td></tr><tr><td style="font-weight:bold;vertical-align:top;">menu</td><td style="vertical-align:top;">:</td><td><div><table><tr><td><div><table><tr><td><div>Home</div></td></tr><tr><td><div>False</div></td></tr><tr><td><div>/P2P/default/index</div></td></tr><tr><td><div><table></table></div></td></tr></table></div></td></tr><tr><td><div><table><tr><td><div>Browse Poems</div></td></tr><tr><td><div>False</div></td></tr><tr><td><div>/P2P/default/browse</div></td></tr><tr><td><div><table></table></div></td></tr></table></div></td></tr><tr><td><div><table><tr><td><div>Search Poems</div></td></tr><tr><td><div>False</div></td></tr><tr><td><div>/P2P/default/search</div></td></tr><tr><td><div><table></table></div></td></tr></table></div></td></tr><tr><td><div><table><tr><td><div>Profile</div></td></tr><tr><td><div>False</div></td></tr><tr><td><div>/P2P/default/profile</div></td></tr><tr><td><div><table></table></div></td></tr></table></div></td></tr><tr><td><div><table><tr><td><div>My Sites</div></td></tr><tr><td><div>False</div></td></tr><tr><td><div>/admin/default/site</div></td></tr></table></div></td></tr><tr><td><div><table><tr><td><div>This App</div></td></tr><tr><td><div>False</div></td></tr><tr><td><div>#</div></td></tr><tr><td><div><table><tr><td><div><table><tr><td><div>Design</div></td></tr><tr><td><div>False</div></td></tr><tr><td><div>/admin/default/design/P2P</div></td></tr></table></div></td></tr><tr><td><div><li class="divider"></li></div></td></tr><tr><td><div><table><tr><td><div>Controller</div></td></tr><tr><td><div>False</div></td></tr><tr><td><div>/admin/default/edit/P2P/controllers/default.py</div></td></tr></table></div></td></tr><tr><td><div><table><tr><td><div>View</div></td></tr><tr><td><div>False</div></td></tr><tr><td><div>/admin/default/edit/P2P/views/default/add.html</div></td></tr></table></div></td></tr><tr><td><div><table><tr><td><div>DB Model</div></td></tr><tr><td><div>False</div></td></tr><tr><td><div>/admin/default/edit/P2P/models/db.py</div></td></tr></table></div></td></tr><tr><td><div><table><tr><td><div>Menu Model</div></td></tr><tr><td><div>False</div></td></tr><tr><td><div>/admin/default/edit/P2P/models/menu.py</div></td></tr></table></div></td></tr><tr><td><div><table><tr><td><div>Config.ini</div></td></tr><tr><td><div>False</div></td></tr><tr><td><div>/admin/default/edit/P2P/private/appconfig.ini</div></td></tr></table></div></td></tr><tr><td><div><table><tr><td><div>Layout</div></td></tr><tr><td><div>False</div></td></tr><tr><td><div>/admin/default/edit/P2P/views/layout.html</div></td></tr></table></div></td></tr><tr><td><div><table><tr><td><div>Stylesheet</div></td></tr><tr><td><div>False</div></td></tr><tr><td><div>/admin/default/edit/P2P/static/css/web2py-bootstrap3.css</div></td></tr></table></div></td></tr><tr><td><div><table><tr><td><div>Database</div></td></tr><tr><td><div>False</div></td></tr><tr><td><div>/P2P/appadmin/index</div></td></tr></table></div></td></tr><tr><td><div><table><tr><td><div>Errors</div></td></tr><tr><td><div>False</div></td></tr><tr><td><div>/admin/default/errors/P2P</div></td></tr></table></div></td></tr><tr><td><div><table><tr><td><div>About</div></td></tr><tr><td><div>False</div></td></tr><tr><td><div>/admin/default/about/P2P</div></td></tr></table></div></td></tr></table></div></td></tr></table></div></td></tr></table></div></td></tr><tr><td style="font-weight:bold;vertical-align:top;">meta</td><td style="vertical-align:top;">:</td><td><div><table><tr><td style="font-weight:bold;vertical-align:top;">author</td><td style="vertical-align:top;">:</td><td><div>Your Name &lt;you@example.com&gt;</div></td></tr><tr><td style="font-weight:bold;vertical-align:top;">description</td><td style="vertical-align:top;">:</td><td><div>a cool new app</div></td></tr><tr><td style="font-weight:bold;vertical-align:top;">generator</td><td style="vertical-align:top;">:</td><td><div>Web2py Web Framework</div></td></tr><tr><td style="font-weight:bold;vertical-align:top;">keywords</td><td style="vertical-align:top;">:</td><td><div>web2py, python, framework</div></td></tr></table></div></td></tr><tr><td style="font-weight:bold;vertical-align:top;">models_to_run</td><td style="vertical-align:top;">:</td><td><div><table><tr><td><div>^\\w+\\.py$</div></td></tr><tr><td><div>^default/\\w+\\.py$</div></td></tr><tr><td><div>^default/add/\\w+\\.py$</div></td></tr></table></div></td></tr><tr><td style="font-weight:bold;vertical-align:top;">postprocessing</td><td style="vertical-align:top;">:</td><td><div><table></table></div></td></tr><tr><td style="font-weight:bold;vertical-align:top;">session_client</td><td style="vertical-align:top;">:</td><td><div>127.0.0.1</div></td></tr><tr><td style="font-weight:bold;vertical-align:top;">session_cookie_compression_level</td><td style="vertical-align:top;">:</td><td><div>None</div></td></tr><tr><td style="font-weight:bold;vertical-align:top;">session_cookie_expires</td><td style="vertical-align:top;">:</td><td><div>None</div></td></tr><tr><td style="font-weight:bold;vertical-align:top;">session_cookie_key</td><td style="vertical-align:top;">:</td><td><div>None</div></td></tr><tr><td style="font-weight:bold;vertical-align:top;">session_data_name</td><td style="vertical-align:top;">:</td><td><div>session_data_p2p</div></td></tr><tr><td style="font-weight:bold;vertical-align:top;">session_file</td><td style="vertical-align:top;">:</td><td><div>&lt;open file &#x27;C:\\\\Users\\\\Kevin\\\\Desktop\\\\web2py\\\\applications\\\\P2P\\\\sessions\\\\08e\\\\1ea\\\\127.0.0.1-25197d3b-1900-4fd5-8e6a-2db2f81b85fd&#x27;, mode &#x27;rb+&#x27; at 0x08E7F0D0&gt;</div></td></tr><tr><td style="font-weight:bold;vertical-align:top;">session_filename</td><td style="vertical-align:top;">:</td><td><div>C:\\Users\\Kevin\\Desktop\\web2py\\applications\\P2P\\sessions\\127.0.0.1-25197d3b-1900-4fd5-8e6a-2db2f81b85fd</div></td></tr><tr><td style="font-weight:bold;vertical-align:top;">session_hash</td><td style="vertical-align:top;">:</td><td><div>542fdfb8a9da0e297860188c74821ce5</div></td></tr><tr><td style="font-weight:bold;vertical-align:top;">session_id</td><td style="vertical-align:top;">:</td><td><div>127.0.0.1-25197d3b-1900-4fd5-8e6a-2db2f81b85fd</div></td></tr><tr><td style="font-weight:bold;vertical-align:top;">session_id_name</td><td style="vertical-align:top;">:</td><td><div>session_id_p2p</div></td></tr><tr><td style="font-weight:bold;vertical-align:top;">session_locked</td><td style="vertical-align:top;">:</td><td><div>True</div></td></tr><tr><td style="font-weight:bold;vertical-align:top;">session_masterapp</td><td style="vertical-align:top;">:</td><td><div>P2P</div></td></tr><tr><td style="font-weight:bold;vertical-align:top;">session_new</td><td style="vertical-align:top;">:</td><td><div>False</div></td></tr><tr><td style="font-weight:bold;vertical-align:top;">session_storage_type</td><td style="vertical-align:top;">:</td><td><div>file</div></td></tr><tr><td style="font-weight:bold;vertical-align:top;">status</td><td style="vertical-align:top;">:</td><td><div>200</div></td></tr><tr><td style="font-weight:bold;vertical-align:top;">subtitle</td><td style="vertical-align:top;">:</td><td><div></div></td></tr><tr><td style="font-weight:bold;vertical-align:top;">title</td><td style="vertical-align:top;">:</td><td><div>P2P</div></td></tr><tr><td style="font-weight:bold;vertical-align:top;">view</td><td style="vertical-align:top;">:</td><td><div>default/add.html</div></td></tr></table></div>'
tRp220
sS'locals'
p221
(dp222
S'err'
p223
S"gaierror(11001, 'getaddrinfo failed')"
p224
sS'h'
S'<httplib.HTTPConnection instance>'
p225
sS'self'
p226
S'<urllib2.HTTPHandler instance>'
p227
sS'req'
p228
S'<urllib2.Request instance>'
p229
sS'headers'
p230
S"{'Connection': 'close', 'Host': 'rhymebrain.com', 'User-Agent': 'Python-urllib/2.7'}"
p231
sS'host'
p232
S"'rhymebrain.com'"
p233
sS'http_class'
p234
S'<class httplib.HTTPConnection>'
p235
sS'http_conn_args'
p236
g139
sssS'traceback'
p237
S'Traceback (most recent call last):\n  File "C:\\Users\\Kevin\\Desktop\\web2py\\gluon\\restricted.py", line 227, in restricted\n    exec ccode in environment\n  File "C:\\Users\\Kevin\\Desktop\\web2py\\applications\\P2P\\controllers/default.py", line 455, in <module>\n  File "C:\\Users\\Kevin\\Desktop\\web2py\\gluon\\globals.py", line 412, in <lambda>\n    self._caller = lambda f: f()\n  File "C:\\Users\\Kevin\\Desktop\\web2py\\gluon\\tools.py", line 4236, in f\n    return action(*a, **b)\n  File "C:\\Users\\Kevin\\Desktop\\web2py\\applications\\P2P\\controllers/default.py", line 290, in add\n    data = urllib2.urlopen(full_url)\n  File "urllib2.py", line 154, in urlopen\n  File "urllib2.py", line 431, in open\n  File "urllib2.py", line 449, in _open\n  File "urllib2.py", line 409, in _call_chain\n  File "urllib2.py", line 1227, in http_open\n  File "urllib2.py", line 1197, in do_open\nURLError: <urlopen error [Errno 11001] getaddrinfo failed>\n'
p238
s.