(dp1
S'output'
p2
S"<type 'exceptions.ValueError'> invalid literal for long() with base 10: 'default'"
p3
sS'layer'
p4
S'C:\\Users\\Kevin\\Desktop\\web2py\\applications\\P2P\\views\\default/search.html'
p5
sS'code'
p6
S'response.write(\'<!DOCTYPE html>\\r\\n<!--[if (gt IE 9)|!(IE)]><!--> <html class="no-js" lang="\', escape=False)\nresponse.write(T.accepted_language or \'en\')\nresponse.write(\'"> <!--<![endif]-->\\r\\n  <head>\\r\\n    <meta charset="utf-8">\\r\\n    <!-- www.phpied.com/conditional-comments-block-downloads/ -->\\r\\n    <!-- Always force latest IE rendering engine\\r\\n         (even in intranet) & Chrome Frame\\r\\n         Remove this if you use the .htaccess -->\\r\\n    <meta http-equiv="X-UA-Compatible" content="IE=edge\', escape=False)\nresponse.write(not request.is_local and \',chrome=1\' or \'\')\nresponse.write(\'">\\r\\n    <!--  Mobile Viewport Fix\\r\\n          j.mp/mobileviewport & davidbcalhoun.com/2010/viewport-metatag\\r\\n          device-width: Occupy full width of the screen in its current orientation\\r\\n          initial-scale = 1.0 retains dimensions instead of zooming out if page height > device height\\r\\n          user-scalable = yes allows the user to zoom in -->\\r\\n    <meta name="viewport" content="width=device-width, initial-scale=1.0">\\r\\n    <title>\', escape=False)\nresponse.write(response.title or request.application)\nresponse.write(\'</title>\\r\\n    <!-- http://dev.w3.org/html5/markup/meta.name.html -->\\r\\n    <meta name="application-name" content="\', escape=False)\nresponse.write(request.application)\nresponse.write(\'">\\r\\n    <!-- Speaking of Google, don\\\'t forget to set your site up:\\r\\n         http://google.com/webmasters -->\\r\\n    <meta name="google-site-verification" content="">\\r\\n    <!-- include stylesheets -->\\r\\n    <link rel="stylesheet" href="\', escape=False)\nresponse.write(URL(\'static\',\'css/bootstrap.min.css\'))\nresponse.write(\'"/>\\r\\n    <link rel="stylesheet" href="\', escape=False)\nresponse.write(URL(\'static\',\'css/web2py-bootstrap3.css\'))\nresponse.write(\'"/>\\r\\n    <link rel="shortcut icon" href="\', escape=False)\nresponse.write(URL(\'static\',\'images/favicon.ico\'))\nresponse.write(\'" type="image/x-icon">\\r\\n    <link rel="apple-touch-icon" href="\', escape=False)\nresponse.write(URL(\'static\',\'images/favicon.png\'))\nresponse.write(\'">\\r\\n    <!-- All JavaScript at the bottom, except for Modernizr which enables\\r\\n         HTML5 elements & feature detects -->\\r\\n    <script src="\', escape=False)\nresponse.write(URL(\'static\',\'js/modernizr-2.8.3.min.js\'))\nresponse.write(\'"></script>\\r\\n    <!--[if lt IE 9]>\\r\\n        <script src="\', escape=False)\nresponse.write(URL(\'static\',\'js/respond-1.4.2.min.js\'))\nresponse.write(\'"></script>\\r\\n        <![endif]-->\\r\\n    <!-- Favicons -->\\r\\n    \', escape=False)\nresponse.write(\'<script type="text/javascript"><!--\\n    // These variables are used by the web2py_ajax_init function in web2py_ajax.js (which is loaded below).\\n    var w2p_ajax_confirm_message = "\', escape=False)\nresponse.write(T(\'Are you sure you want to delete this object?\'))\nresponse.write(\'";\\n    var w2p_ajax_disable_with_message = "\', escape=False)\nresponse.write(T(\'Working...\'))\nresponse.write(\'";\\n    var w2p_ajax_date_format = "\', escape=False)\nresponse.write(T(\'%Y-%m-%d\'))\nresponse.write(\'";\\n    var w2p_ajax_datetime_format = "\', escape=False)\nresponse.write(T(\'%Y-%m-%d %H:%M:%S\'))\nresponse.write(\'";\\n    var ajax_error_500 = \\\'\', escape=False)\nresponse.write(T.M(\'An error occured, please [[reload %s]] the page\') % URL(args=request.args, vars=request.get_vars))\nresponse.write("\'\\n    //--></script>\\n", escape=False)\nresponse.files.insert(0,URL(\'static\',\'js/jquery.js\'))\nresponse.files.insert(1,URL(\'static\',\'css/calendar.css\'))\nresponse.files.insert(2,URL(\'static\',\'js/calendar.js\'))\nresponse.files.insert(3,URL(\'static\',\'js/web2py.js\'))\nresponse.include_meta()\nresponse.include_files()\nresponse.write(\'\\n\', escape=False)\nresponse.write(\' <!-- this includes jquery.js, calendar.js/.css and web2py.js -->\\r\\n    \', escape=False)\nresponse.write(\'\\r\\n    \', escape=False)\n# using sidebars need to know what sidebar you want to use\nmc0 = \'col-md-12\'\nmc1 = \'col-md-9\'\nmc2 = \'col-md-6\'\nleft_sidebar_enabled = globals().get(\'left_sidebar_enabled\', False)\nright_sidebar_enabled = globals().get(\'right_sidebar_enabled\', False)\nmiddle_column = {0: mc0, 1: mc1, 2: mc2}[\n(left_sidebar_enabled and 1 or 0)+(right_sidebar_enabled and 1 or 0)]\nresponse.write(\'\\r\\n  </head>\\r\\n  <body>\\r\\n    <!--[if lt IE 8]><p class="browserupgrade">You are using an <strong>outdated</strong> browser. Please <a href="http://browsehappy.com/">upgrade your browser</a> to improve your experience.</p><![endif]-->\\r\\n    <div class="w2p_flash alert alert-dismissable">\', escape=False)\nresponse.write(response.flash or \'\')\nresponse.write(\'</div>\\r\\n    <!-- Navbar ======================================= -->\\r\\n    <nav class="navbar navbar-default navbar-fixed-top" role="navigation">\\r\\n      <div class="container-fluid">\\r\\n        <div class="navbar-header">\\r\\n          <button type="button" class="navbar-toggle" data-toggle="collapse" data-target=".navbar-collapse">\\r\\n            <span class="sr-only">Toggle navigation</span>\\r\\n            <span class="icon-bar"></span>\\r\\n            <span class="icon-bar"></span>\\r\\n            <span class="icon-bar"></span>\\r\\n          </button>\\r\\n          \', escape=False)\nresponse.write(response.logo or \'\')\nresponse.write(\'\\r\\n        </div>\\r\\n        <div class="collapse navbar-collapse navbar-ex1-collapse">\\r\\n          <ul class="nav navbar-nav navbar-right">\\r\\n            \', escape=False)\nresponse.write(\'auth\' in globals() and auth.navbar(\'Welcome\',mode=\'dropdown\') or \'\')\nresponse.write(\'\\r\\n          </ul>\\r\\n          \', escape=False)\nif response.menu:\n    response.write(\'\\r\\n          \', escape=False)\n    response.write(MENU(response.menu, _class=\'nav navbar-nav\',li_class=\'dropdown\',ul_class=\'dropdown-menu\'))\n    response.write(\'\\r\\n          \', escape=False)\n    pass\nresponse.write(\'\\r\\n        </div>\\r\\n      </div>\\r\\n    </nav>\\r\\n    <!-- Masthead ===================================== -->    \\r\\n    \', escape=False)\nresponse.write(\'\\r\\n    \', escape=False)\nresponse.write(\'\\r\\n    <!-- Main ========================================= -->\\r\\n    <!-- Begin page content -->\\r\\n    <div class="container-fluid main-container">\\r\\n      \', escape=False)\nif left_sidebar_enabled:\n    response.write(\'\\r\\n        <div class="col-md-3 left-sidebar">\\r\\n            \', escape=False)\n    response.write(\'\\r\\n            <h3>Left Sidebar</h3>\\r\\n            <p></p>\\r\\n            \', escape=False)\n    response.write(\'\\r\\n        </div>\\r\\n      \', escape=False)\n    pass\nresponse.write(\'\\r\\n\\r\\n      <div class="\', escape=False)\nresponse.write(middle_column)\nresponse.write(\'">\\r\\n        \', escape=False)\nresponse.write(\'\\r\\n        \', escape=False)\nresponse.write(\'\\r\\n<h2>Search Poems</h2>\\r\\n<h5 align = "right"> \', escape=False)\nresponse.write(form)\nresponse.write(\'</h5>\\r\\n\\r\\n\\r\\n<table class="table">\\r\\n    <tr>\\r\\n        <th>Title</th>\\r\\n        <th>Author</th>\\r\\n        <th>Permission to add line</th>\\r\\n        <th>First Line</th>\\r\\n    </tr>\\r\\n    \', escape=False)\nfor row in db(db.poem.author == searchKey).select() :\n    response.write(\'\\r\\n    <tr>\\r\\n        <td><a href="\', escape=False)\n    response.write(URL(\'poem\',args=row.id))\n    response.write(\'">\', escape=False)\n    response.write(row.title)\n    response.write(\'</td>\\r\\n        <td>\', escape=False)\n    response.write(db.auth_user(row.author).username)\n    response.write(\'</td>\\r\\n        <td>\', escape=False)\n    response.write(row.permission)\n    response.write(\'</td>\\r\\n        <td>\', escape=False)\n    response.write(row.body.split(\'\\n\')[0])\n    response.write(\'</td>\\r\\n    </tr>\\r\\n    \', escape=False)\n    pass\nresponse.write(\'\\r\\n</table>\\r\\n\', escape=False)\nresponse.write(\'\\r\\n        \', escape=False)\nresponse.write(\'\\r\\n      </div>\\r\\n\\r\\n      \', escape=False)\nif right_sidebar_enabled:\n    response.write(\'\\r\\n        <div class="col-md-3">\\r\\n            \', escape=False)\n    response.write(\'\\r\\n            <h3>Right Sidebar</h3>\\r\\n            <p></p>\\r\\n            \', escape=False)\n    response.write(\'\\r\\n        </div>\\r\\n      \', escape=False)\n    pass\nresponse.write(\'\\r\\n\\r\\n    </div>\\r\\n\\r\\n    \', escape=False)\nresponse.write(\' <!-- this is default footer -->      \\r\\n    <footer class="footer">\\r\\n      <div class="container-fluid">\\r\\n        <div class="copyright pull-left">\', escape=False)\nresponse.write(T(\'Copyright\'))\nresponse.write(\' &#169; \', escape=False)\nresponse.write(request.now.year)\nresponse.write(\'</div>\\r\\n          <div id="poweredBy" class="pull-right">\\r\\n            \', escape=False)\nresponse.write(T(\'Powered by\'))\nresponse.write(\'\\r\\n            <a href="http://www.web2py.com/">web2py</a>\\r\\n          </div>\\r\\n      </div>\\r\\n    </footer>\\r\\n    \', escape=False)\nresponse.write(\'\\r\\n    <!-- The javascript =============================== -->\\r\\n    <script src="\', escape=False)\nresponse.write(URL(\'static\',\'js/bootstrap.min.js\'))\nresponse.write(\'"></script>\\r\\n    <script src="\', escape=False)\nresponse.write(URL(\'static\',\'js/web2py-bootstrap3.js\'))\nresponse.write(\'"></script>\\r\\n    \', escape=False)\nresponse.write(\'\\r\\n    \', escape=False)\nif response.google_analytics_id:\n    response.write(\'\\r\\n    <!-- Analytics ==================================== -->\\r\\n    <script src="\', escape=False)\n    response.write(URL(\'static\',\'js/analytics.min.js\'))\n    response.write(\'"></script>\\r\\n    <script type="text/javascript">\\r\\n      analytics.initialize({\\r\\n      \\\'Google Analytics\\\':{trackingId:\\\'\', escape=False)\n    response.write(response.google_analytics_id)\n    response.write("\'}\\r\\n      });\\r\\n    </script>\\r\\n    ", escape=False)\n    pass\nresponse.write(\'\\r\\n    <!-- Share ============================y============ -->\\r\\n    <script src="\', escape=False)\nresponse.write(URL(\'static\',\'js/share.js\',vars=dict(static=URL(\'static\',\'images\'))))\nresponse.write(\'"></script>\\r\\n  </body>\\r\\n</html>\\r\\n\', escape=False)'
p7
sS'snapshot'
p8
(dp9
sS'traceback'
p10
S'Traceback (most recent call last):\n  File "C:\\Users\\Kevin\\Desktop\\web2py\\gluon\\restricted.py", line 227, in restricted\n    exec ccode in environment\n  File "C:\\Users\\Kevin\\Desktop\\web2py\\applications\\P2P\\views\\default/search.html", line 77, in <module>\n  File "C:\\Users\\Kevin\\Desktop\\web2py\\gluon\\packages\\dal\\pydal\\objects.py", line 2025, in select\n    return adapter.select(self.query,fields,attributes)\n  File "C:\\Users\\Kevin\\Desktop\\web2py\\gluon\\packages\\dal\\pydal\\adapters\\sqlite.py", line 124, in select\n    return super(SQLiteAdapter, self).select(query, fields, attributes)\n  File "C:\\Users\\Kevin\\Desktop\\web2py\\gluon\\packages\\dal\\pydal\\adapters\\base.py", line 1280, in select\n    sql = self._select(query, fields, attributes)\n  File "C:\\Users\\Kevin\\Desktop\\web2py\\gluon\\packages\\dal\\pydal\\adapters\\base.py", line 1167, in _select\n    sql_w = \' WHERE \' + self.expand(query) if query else \'\'\n  File "C:\\Users\\Kevin\\Desktop\\web2py\\gluon\\packages\\dal\\pydal\\adapters\\base.py", line 952, in expand\n    rv = op(first, second, **optional_args)\n  File "C:\\Users\\Kevin\\Desktop\\web2py\\gluon\\packages\\dal\\pydal\\adapters\\base.py", line 846, in EQ\n    self.expand(second, first.type))\n  File "C:\\Users\\Kevin\\Desktop\\web2py\\gluon\\packages\\dal\\pydal\\adapters\\base.py", line 962, in expand\n    rv = self.represent(expression, field_type)\n  File "C:\\Users\\Kevin\\Desktop\\web2py\\gluon\\packages\\dal\\pydal\\adapters\\base.py", line 1439, in represent\n    return str(long(obj))\nValueError: invalid literal for long() with base 10: \'default\'\n'
p11
s.